(dp0
S'P. Rosati'
p1
I1796
sS'August E. Evrard'
p2
I223
sS'Titus J. Galama'
p3
I2379
sS'A. Witzel'
p4
I151
sS'E. V. Gotthelf'
p5
I618
sS'K. D. Borne'
p6
I1232
sS'G. P. Rowell'
p7
I801
sS'Phillip Helbig'
p8
I1869
sS'Gregory Laughlin'
p9
I854
sS'Kailash C. Sahu'
p10
I1281
sS'T. Cline'
p11
I2283
sS'T. Treu'
p12
I2342
sS'A. M. Atoyan'
p13
I92
sS'R. F. Green'
p14
I1927
sS'R. M. Hjellming'
p15
I1962
sS'Ari Laor'
p16
I216
sS'M. Giard'
p17
I1461
sS'E. Hivon'
p18
I587
sS'T. Erben'
p19
I2286
sS'P. S. Pellegrini'
p20
I1800
sS'Marco Spaans'
p21
I1581
sS'Yehuda Hoffman'
p22
I2544
sS'J. Knapp'
p23
I1072
sS'F. Camilo'
p24
I674
sS'F. Caputo'
p25
I675
sS'Julian H. Krolik'
p26
I1216
sS'Paul Martini'
p27
I1842
sS'R. Sagar'
p28
I1999
sS'K. Mannheim'
p29
I1256
sS'C. J. Cesarsky'
p30
I331
sS'R. W. Pogge'
p31
I2018
sS'Matthew D. Lehnert'
p32
I1612
sS'Tomasz Bulik'
p33
I2392
sS'William G. Mathews'
p34
I2508
sS'C. Alcock'
p35
I305
sS'Victoria M. Kaspi'
p36
I2443
sS'R. Petre'
p37
I1988
sS'P. B. Tissera'
p38
I1731
sS'M. A. Pahre'
p39
I1414
sS'J. C. Lee'
p40
I1010
sS'J. Cernicharo'
p41
I1016
sS'K. M. Gorski'
p42
I1252
sS'K. Nandra'
p43
I1259
sS'P. Marziani'
p44
I1777
sS'Alan Stockton'
p45
I169
sS'B. Mobasher'
p46
I254
sS'N. B. Suntzeff'
p47
I1650
sS"F. D'Antona"
p48
I679
sS'G. Trinchieri'
p49
I817
sS'John R. Stauffer'
p50
I1192
sS'Christopher W. Mauche'
p51
I403
sS'D. M. Smith'
p52
I475
sS'A. A. Zdziarski'
p53
I3
sS'David N. Burrows'
p54
I533
sS'G. H. Moriarty-Schieven'
p55
I772
sS'L. Pentericci'
p56
I1366
sS'James R. Wilson'
p57
I1145
sS'W. Hillebrandt'
p58
I2467
sS'M. J. Kesteven'
p59
I1485
sS'L. Piro'
p60
I1367
sS'M. A. Malkan'
p61
I1412
sS'J. I. Lunine'
p62
I1060
sS'Ulrich Kolb'
p63
I2414
sS'Y. F. Huang'
p64
I2523
sS'M. Pierre'
p65
I1524
sS'E. P. J. van den Heuvel'
p66
I604
sS'Wendy L. Freedman'
p67
I2502
sS'G. Bono'
p68
I745
sS'Duncan A. Forbes'
p69
I560
sS'F. A. Rasio'
p70
I666
sS'Fabian Walter'
p71
I716
sS"Nichi D'Amico"
p72
I1690
sS'Ewine F. van Dishoeck'
p73
I661
sS'H. A. Smith'
p74
I863
sS'N. Vittorio'
p75
I1676
sS'D. Lemke'
p76
I471
sS'R. R. Ross'
p77
I1991
sS'R. V. E. Lovelace'
p78
I2014
sS'W. S. Holland'
p79
I2485
sS'J. W. Sulentic'
p80
I1129
sS'U. Oberlack'
p81
I2411
sS'A. K. Pandey'
p82
I79
sS'Christian R. Kaiser'
p83
I391
sS'M. Orlandini'
p84
I1519
sS'G. L. Israel'
p85
I788
sS'I. S. McLean'
p86
I962
sS'R. L. White'
p87
I1959
sS'Peter H. Hauschildt'
p88
I1856
sS'J. Jugaku'
p89
I1067
sS'L. D. Matthews'
p90
I1332
sS'Ulrich Hopp'
p91
I2413
sS'Sylvie Vauclair'
p92
I2274
sS'L. Natalucci'
p93
I1362
sS'R. P. Saglia'
p94
I1983
sS'C. L. Carilli'
p95
I335
sS'M. Guainazzi'
p96
I1467
sS'F. Frontera'
p97
I687
sS'Yuzuru Yoshii'
p98
I2552
sS'D. G. Yakovlev'
p99
I447
sS'Nahum Arav'
p100
I1680
sS'J. R. Patterson'
p101
I1109
sS'G. Madejski'
p102
I792
sS'P. Kahabka'
p103
I1766
sS'R. L. Aptekar'
p104
I1956
sS'Geoffrey C. Clayton'
p105
I833
sS'U. Geppert'
p106
I2406
sS'F. Yusef-Zadeh'
p107
I715
sS'L. Colina'
p108
I1330
sS'M. M. Romanova'
p109
I1503
sS'G. Efstathiou'
p110
I758
sS'B. Aschenbach'
p111
I229
sS'R. Brunner'
p112
I1897
sS'M. Dickinson'
p113
I1448
sS'J. Wambsganss'
p114
I1131
sS'D. A. Smith'
p115
I418
sS'Silvano Molendi'
p116
I2246
sS'M. Grewing'
p117
I1465
sS'Hajime Susa'
p118
I914
sS'R. Lieu'
p119
I1960
sS'T. J. Galama'
p120
I2295
sS'Lewis Ball'
p121
I1399
sS'J. X. Wang'
p122
I1133
sS'A. Vikhlinin'
p123
I146
sS'L. C. Ho'
p124
I1326
sS'Peter M. Woods'
p125
I1861
sS'Piero Madau'
p126
I1871
sS'Y. -H. Chu'
p127
I2520
sS'F. J. Castander'
p128
I695
sS'R. S. Somerville'
p129
I1996
sS'J. Craig Wheeler'
p130
I1021
sS'R. J. Protheroe'
p131
I1951
sS'P. G. Martin'
p132
I1748
sS'M. van der Klis'
p133
I1569
sS'W. M. Goss'
p134
I2479
sS'M. Serra-Ricart'
p135
I1551
sS'P. E. J. Nulsen'
p136
I1740
sS'J. H. Swank'
p137
I1053
sS'S. D. M. White'
p138
I2135
sS'Mark H. Finger'
p139
I1593
sS'Gary Steigman'
p140
I829
sS'T. Vandehei'
p141
I2343
sS'Makoto Tashiro'
p142
I1571
sS'E. Branchini'
p143
I570
sS'D. Kunze'
p144
I461
sS'Margaret J. Geller'
p145
I1583
sS'J. C. Guirado'
p146
I1009
sS'Roberto Soria'
p147
I2080
sS'S. M. Croom'
p148
I2172
sS'John P. Blakeslee'
p149
I1190
sS'R. Spurzem'
p150
I2005
sS'L. Vigroux'
p151
I1379
sS'Arthur Kosowsky'
p152
I220
sS'A. Becker'
p153
I11
sS'K. L. Luhman'
p154
I1250
sS'Felix Ryde'
p155
I720
sS"J. J. M. in 't Zand"
p156
I1063
sS'Kenneth R. Sembach'
p157
I1301
sS'G. G. C. Palumbo'
p158
I763
sS'S. V. Kalenskii'
p159
I2206
sS'Pieter G. van Dokkum'
p160
I1873
sS'S. Cole'
p161
I2128
sS'R. T. Schilizzi'
p162
I2011
sS'Mark L. Giroux'
p163
I1595
sS'N. Wex'
p164
I1678
sS'L. Angelini'
p165
I1319
sS'T. Boeker'
p166
I2279
sS'C. Henkel'
p167
I330
sS'C. Balkowski'
p168
I308
sS'Robert E. Rutledge'
p169
I2071
sS'V. N. Lukash'
p170
I2433
sS'Michael R. Merrifield'
p171
I1633
sS'R. J. Smith'
p172
I1953
sS'R. Fusco-Femiano'
p173
I1935
sS'Philip J. Armitage'
p174
I1865
sS'Willy Benz'
p175
I2511
sS'R. Brent Tully'
p176
I1896
sS'G. F. Smoot'
p177
I760
sS'R. A. Remillard'
p178
I1888
sS'M. Magliocchetti'
p179
I1504
sS'V. M"uller'
p180
I2428
sS'E. Egami'
p181
I579
sS'Paul Harding'
p182
I1837
sS'L. Nicastro'
p183
I1363
sS'M. P. Ulmer'
p184
I1522
sS'A. J. Drake'
p185
I71
sS'John C. Raymond'
p186
I1180
sS'John K. Webb'
p187
I1186
sS'Giorgio Matt'
p188
I846
sS'Y. Copin'
p189
I2522
sS'J. Kaluzny'
p190
I1070
sS'M. Dominik'
p191
I1449
sS'R. M. Cutri'
p192
I1961
sS'A. O. Jaunsen'
p193
I108
sS'E. Oliva'
p194
I603
sS'M. S. Brotherton'
p195
I1535
sS'H. -J. Hagen'
p196
I860
sS'M. Honma'
p197
I1475
sS'Alexander S. Szalay'
p198
I177
sS'M. Sarzi'
p199
I1544
sS'M. Landgraf'
p200
I1497
sS'P. Haensel'
p201
I1755
sS'I. V. Moskalenko'
p202
I967
sS'M. Szymanski'
p203
I1555
sS'A. Chieffi'
p204
I31
sS'N. Mandolesi'
p205
I1665
sS'P. Goldoni'
p206
I1752
sS'C. B. Foltz'
p207
I306
sS'S. Courteau'
p208
I2131
sS'A. Claret'
p209
I33
sS'M. Harwit'
p210
I1471
sS'A. Muecke'
p211
I103
sS'M. Eracleous'
p212
I1456
sS'Sabine Schindler'
p213
I2216
sS'U. Klein'
p214
I2409
sS'AAke Nordlund'
p215
I155
sS'S. Lord'
p216
I2170
sS'Francesca Matteucci'
p217
I723
sS'J. Lehar'
p218
I1079
sS'T. X. Thuan'
p219
I2348
sS'Hugo Martel'
p220
I934
sS'H. Flores'
p221
I877
sS'J. -C. Mermilliod'
p222
I985
sS'L. Cram'
p223
I1331
sS'Richard G. McMahon'
p224
I2051
sS'J. N. Fry'
p225
I1095
sS'Gerard A. Kriss'
p226
I843
sS'W. Collmar'
p227
I2456
sS'G. Clementini'
p228
I753
sS'K. L. Adelberger'
p229
I1249
sS'D. M. Crenshaw'
p230
I473
sS'J. E. Gunn'
p231
I1031
sS'W. B. Hubbard'
p232
I2449
sS'Erwin de Blok'
p233
I655
sS'Charles A. Meegan'
p234
I377
sS'Steinn Sigurdsson'
p235
I2262
sS"R. W. O'Connell"
p236
I2017
sS'Hagai Netzer'
p237
I913
sS'V. Ripepi'
p238
I2436
sS'P. Hoeflich'
p239
I1756
sS'Carlos S. Frenk'
p240
I373
sS'S. Michael Fall'
p241
I2183
sS'A. Weiss'
p242
I149
sS'David L. Band'
p243
I530
sS'F. Matteucci'
p244
I700
sS'Karl D. Gordon'
p245
I1284
sS'P. Vermaak'
p246
I1815
sS'Benjamin C. Bromley'
p247
I278
sS'T. G. Tsuru'
p248
I2288
sS'A. A. Boyarchuk'
p249
I0
sS'M. Sakano'
p250
I1541
sS"V. N. Il'inskii"
p251
I2432
sS'L. Van Waerbeke'
p252
I1377
sS'Jordi Miralda-Escude'
p253
I1203
sS'Eve C. Ostriker'
p254
I659
sS'M. E. Prokhorov'
p255
I1452
sS'R. W. Goodrich'
p256
I2015
sS'Eli Dwek'
p257
I636
sS'Hideki Asada'
p258
I925
sS'David H. Hughes'
p259
I525
sS'P. de Bernardis'
p260
I1820
sS'D. E. Gruber'
p261
I440
sS'Yu Gao'
p262
I2550
sS'L. W. Fredrick'
p263
I1380
sS'J. Lequeux'
p264
I1080
sS'T. L. Cline'
p265
I2302
sS'J. Dyks'
p266
I1026
sS'A. G. Doroshkevich'
p267
I54
sS'A. M. Read'
p268
I94
sS'K. Matthews'
p269
I1257
sS'P. D. Sackett'
p270
I1738
sS'Henry C. Ferguson'
p271
I922
sS'W. J. Maciel'
p272
I2471
sS'G. Setti'
p273
I810
sS'Torsten A. Ensslin'
p274
I2394
sS'Ryohei Kawabe'
p275
I2101
sS'R. Durrer'
p276
I1920
sS'K. A. Misselt'
p277
I1224
sS'L. Staveley-Smith'
p278
I1372
sS'David Valls-Gabaud'
p279
I538
sS'Julio F. Navarro'
p280
I1219
sS'C. R. Kaiser'
p281
I353
sS'Greg L. Bryan'
p282
I851
sS'N. Prantzos'
p283
I1672
sS'G. Mark Voit'
p284
I794
sS'Kenneth M. Lanzetta'
p285
I1300
sS'K. S. Dwarakanath'
p286
I1272
sS'Michael Rauch'
p287
I1634
sS'S. Bianchi'
p288
I2115
sS'Kinwah Wu'
p289
I1307
sS'Joseph J. Mohr'
p290
I1207
sS'A. K. Tzioumis'
p291
I81
sS'J. C. Mather'
p292
I1011
sS'G. Lagache'
p293
I789
sS'R. Watson'
p294
I2019
sS'G. Wegner'
p295
I820
sS'N. Neininger'
p296
I1669
sS'W. H. Jefferys'
p297
I2465
sS'R. Rebolo'
p298
I1994
sS'D. Thompson'
p299
I502
sS'Frank C. van den Bosch'
p300
I731
sS'R. G. McMahon'
p301
I1940
sS'C. L. Fryer'
p302
I336
sS'A. E. Evrard'
p303
I41
sS'A. Segreto'
p304
I136
sS'Inma Dominguez'
p305
I977
sS'N. Aghanim'
p306
I1649
sS'Matthew Colless'
p307
I1611
sS'I. Appenzeller'
p308
I941
sS'Mike Irwin'
p309
I1640
sS'Z. G. Dai'
p310
I2554
sS'R. X. Xu'
p311
I2022
sS'T. G. Wang'
p312
I2289
sS'H. Li'
p313
I892
sS'Jacco Th. van Loon'
p314
I1137
sS'J. B. Holberg'
p315
I1000
sS'A. Aparicio'
p316
I7
sS'Ermanno F. Borra'
p317
I654
sS'A. Maeder'
p318
I95
sS'Young-Wook Lee'
p319
I2549
sS'H. Bohringer'
p320
I868
sS'E. Ros'
p321
I613
sS'E. Rol'
p322
I612
sS'Geoffrey W. Marcy'
p323
I835
sS'K. D. Gordon'
p324
I1233
sS'M. D. Lehnert'
p325
I1442
sS'I. Smail'
p326
I964
sS'S. Rabien'
p327
I2196
sS'A. J. S. Hamilton'
p328
I73
sS'G. Helou'
p329
I775
sS'P. F. Bloser'
p330
I1742
sS'Peter L. Biermann'
p331
I1858
sS'Omer Blaes'
p332
I1717
sS'P. T. Zycki'
p333
I1808
sS'O. Petruk'
p334
I1710
sS'M. Girardi'
p335
I1463
sS'Richard de Grijs'
p336
I2059
sS'E. B. Fomalont'
p337
I563
sS'James R. Graham'
p338
I1144
sS'G. Giuricin'
p339
I771
sS'P. Moller'
p340
I1781
sS'R. O. Marzke'
p341
I1977
sS'R. P. van der Marel'
p342
I1984
sS'R. Susukita'
p343
I2010
sS'H. K. C. Yee'
p344
I886
sS'R. A. Lucas'
p345
I1885
sS'P. Petitjean'
p346
I1790
sS'Mariko Kato'
p347
I1587
sS'J. R. Herrnstein'
p348
I1106
sS'Gabriele Ghisellini'
p349
I824
sS'Amina Helmi'
p350
I187
sS'M. R. Merrifield'
p351
I1527
sS'H. Spinrad'
p352
I907
sS'Yasuhiro Shioya'
p353
I2540
sS'P. M. W. Kalberla'
p354
I1775
sS'J. S. B. Wyithe'
p355
I1115
sS'Buell T. Jannuzi'
p356
I298
sS'B. T. Draine'
p357
I266
sS'Zeljko Ivezic'
p358
I2556
sS'J. Clavel'
p359
I1020
sS'Joseph C. Weingartner'
p360
I1206
sS'Alan P. Smale'
p361
I168
sS'F. Courbin'
p362
I677
sS'Youichi Ohyama'
p363
I2548
sS'M. Birkinshaw'
p364
I1425
sS'Li-Zhi Fang'
p365
I1400
sS'F. Prada'
p366
I708
sS'Ralph Neuhaeuser'
p367
I2030
sS'C. Gruppioni'
p368
I327
sS'T. Naylor'
p369
I2317
sS'M. McConnell'
p370
I1511
sS'Q. Daniel Wang'
p371
I1880
sS'Schuyler D. Van Dyk'
p372
I2226
sS'M. Villata'
p373
I1565
sS'P. G. Edwards'
p374
I1746
sS'H. -C. Thomas'
p375
I859
sS'E. E. Becklin'
p376
I577
sS'M. Markevitch'
p377
I1507
sS'Marco Lombardi'
p378
I1580
sS'Simon Johnston'
p379
I2249
sS'O. A. Kuznetsov'
p380
I1703
sS'M. Sekiguchi'
p381
I1550
sS'A. J. Young'
p382
I75
sS'I. Neill Reid'
p383
I959
sS'M. Schultheis'
p384
I1548
sS'E. Giallongo'
p385
I584
sS'Kerstin Weis'
p386
I1304
sS'Robert A. Schommer'
p387
I2067
sS'Leo Blitz'
p388
I1395
sS'Karen M. Leighly'
p389
I1283
sS'S. Serjeant'
p390
I2199
sS'J. E. J. Lovell'
p391
I1032
sS'K. Griest'
p392
I1238
sS'Paula Szkody'
p393
I1845
sS'P. P. van der Werf'
p394
I1786
sS'George B. Field'
p395
I836
sS'R. Srianand'
p396
I2006
sS'A. Iovino'
p397
I63
sS'Rennan Barkana'
p398
I2043
sS'A. Gould'
p399
I60
sS'N. Panagia'
p400
I1671
sS'Andrey V. Kravtsov'
p401
I207
sS'Shantanu Basu'
p402
I2240
sS'P. Romano'
p403
I1795
sS'Robert C. Duncan'
p404
I2069
sS'P. L. Biermann'
p405
I1767
sS'Deepto Chakrabarty'
p406
I542
sS'Andrew R Liddle'
p407
I203
sS'T. Belloni'
p408
I2277
sS'F. Patat'
p409
I706
sS'P. P. Avelino'
p410
I1785
sS'A. Malizia'
p411
I97
sS'Kevin Hurley'
p412
I1305
sS'T. R. Marsh'
p413
I2331
sS'Jean Swank'
p414
I1155
sS'J. -P. Beaulieu'
p415
I987
sS'M. Ramella'
p416
I1531
sS'T. J. Turner'
p417
I2298
sS'H. Ford'
p418
I878
sS'S. Pellegrini'
p419
I2191
sS'M. Asplund'
p420
I1418
sS'A. Williams'
p421
I150
sS'Hee-Won Lee'
p422
I920
sS'M. Mezzetti'
p423
I1513
sS'L. van Waerbeke'
p424
I1384
sS'J. A. Sellwood'
p425
I996
sS'T. J. Davidge'
p426
I2294
sS'S. Benetti'
p427
I2114
sS'Y. Mellier'
p428
I2529
sS'Timothy C. Beers'
p429
I2376
sS'E. Pignatelli'
p430
I611
sS'M. J. Kurtz'
p431
I1486
sS'Garth D. Illingworth'
p432
I825
sS'T. Hara'
p433
I2290
sS'N. Benitez'
p434
I1651
sS'T. C. Beers'
p435
I2281
sS'Lin Yan'
p436
I1401
sS'Karl Gebhardt'
p437
I1285
sS'T. Heckman'
p438
I2291
sS'K. R. Anantharamaiah'
p439
I1268
sS'J. Silk'
p440
I1121
sS'W. Krzeminski'
p441
I2475
sS'Sushan Konar'
p442
I2273
sS'F. Figueras'
p443
I685
sS'Karl Mannheim'
p444
I1286
sS'I. W. A. Browne'
p445
I968
sS'E. H. Morgan'
p446
I586
sS'Priyamvada Natarajan'
p447
I1877
sS'I. M. George'
p448
I953
sS'R. B. Barreiro'
p449
I1893
sS'W. Pietsch'
p450
I2482
sS'M. Gerin'
p451
I1460
sS'M. Einasto'
p452
I1454
sS'M. J. Coe'
p453
I1480
sS'M. Franx'
p454
I1458
sS'Tsevi Mazeh'
p455
I2401
sS'T. Venturi'
p456
I2344
sS'Marco Chiaberge'
p457
I1578
sS'S. Mao'
p458
I2177
sS'R. E. Rothschild'
p459
I1923
sS'David A. Buote'
p460
I518
sS'M. Mori'
p461
I1514
sS'A. Cimatti'
p462
I32
sS'A. Bosma'
p463
I16
sS'M. J. Geller'
p464
I1482
sS'A. Treves'
p465
I141
sS'Johan H. Knapen'
p466
I1178
sS'Peter B. Stetson'
p467
I1850
sS'B. Rocca-Volmerange'
p468
I261
sS'G. Steigman'
p469
I815
sS'Arthur M. Wolfe'
p470
I221
sS'Alice K. Harding'
p471
I180
sS'H. Murakami'
p472
I900
sS'D. H. Hartmann'
p473
I451
sS'E. Zas'
p474
I622
sS'C. Megan Urry'
p475
I345
sS'R. Martin'
p476
I1967
sS'M. Coleman Miller'
p477
I1437
sS'Theodore P. Stecher'
p478
I2370
sS'D. A. Williams'
p479
I419
sS'K. -H. Mack'
p480
I1222
sS'R. Nesci'
p481
I1975
sS'Donald C. Ellison'
p482
I551
sS'C. Kouveliotou'
p483
I334
sS'S. A. Laurent-Muehleisen'
p484
I2106
sS'T. T. Takeuchi'
p485
I2338
sS'T. Wiklind'
p486
I2347
sS'E. Cappellaro'
p487
I572
sS'T. R. Bedding'
p488
I2328
sS'Somnath Bharadwaj'
p489
I2256
sS'Charles D. Dermer'
p490
I380
sS'S. Gunji'
p491
I2145
sS'K. C. Sahu'
p492
I1230
sS'B. Holden'
p493
I241
sS'Leo Girardi'
p494
I1396
sS'N. Menci'
p495
I1667
sS'G. Squires'
p496
I814
sS'A. Coletta'
p497
I34
sS'T. S. Axelrod'
p498
I2333
sS'Robert Braun'
p499
I2068
sS'R. P. Kirshner'
p500
I1980
sS'Amr El-Zant'
p501
I189
sS'J. Martin-Pintado'
p502
I1092
sS'Neil M. Nagar'
p503
I1686
sS'Chung-Pei Ma'
p504
I405
sS'Simon L. Morris'
p505
I2250
sS'B. D. Savage'
p506
I232
sS'S. L. Lumsden'
p507
I2163
sS'Roland Svensson'
p508
I2090
sS'Laura Greggio'
p509
I1390
sS'Hiroaki Nishioka'
p510
I928
sS'K. S. Long'
p511
I1273
sS'S. Nagataki'
p512
I2186
sS'A. A. Cole'
p513
I1
sS'R. Mukherjee'
p514
I1972
sS'J. M. Muller'
p515
I1085
sS'Hideyuki Umeda'
p516
I926
sS'Gary Wegner'
p517
I830
sS'Robert A. Gruendl'
p518
I2066
sS'David H. Weinberg'
p519
I526
sS'F. Bertola'
p520
I671
sS'G. Meylan'
p521
I796
sS'E. Palazzi'
p522
I607
sS'A. C. S. Readhead'
p523
I25
sS'T. Oosterbroek'
p524
I2320
sS'Nickolay Y. Gnedin'
p525
I1693
sS'D. K. Galloway'
p526
I459
sS'P. Shaver'
p527
I1804
sS'E. M. Burbidge'
p528
I593
sS'A. Jorissen'
p529
I78
sS'C. R. Keeton'
p530
I354
sS'T. Yamada'
p531
I2349
sS'R. Abraham'
p532
I1892
sS'D. Barret'
p533
I425
sS'V. Castellani'
p534
I2420
sS'Neal Katz'
p535
I1685
sS'A. T. Lee'
p536
I139
sS'P. Saracco'
p537
I1802
sS'Richard McMahon'
p538
I2054
sS'J. R. Walsh'
p539
I1112
sS'G. R. Knapp'
p540
I806
sS'Guenther Hasinger'
p541
I855
sS'Junichiro Makino'
p542
I1220
sS'Achim Weiss'
p543
I157
sS'S. Kane'
p544
I2160
sS'A. Goobar'
p545
I59
sS'Y. Ikebe'
p546
I2526
sS'C. S. Reynolds'
p547
I360
sS'Paolo Padovani'
p548
I1826
sS'Douglas Richstone'
p549
I557
sS'Mario Vietri'
p550
I1590
sS'R. Capuzzo-Dolcetta'
p551
I1904
sS'Mark Cropper'
p552
I1591
sS'Nissim Kanekar'
p553
I1696
sS'J. I. Davies'
p554
I1059
sS'J. E. Grindlay'
p555
I1030
sS'J. Wilms'
p556
I1132
sS'Anatoly Klypin'
p557
I192
sS'Paul P. van der Werf'
p558
I1843
sS'Anthony H. Gonzalez'
p559
I213
sS'Jon Hakkila'
p560
I1196
sS'Laura Maraschi'
p561
I1391
sS'Mario Livio'
p562
I1588
sS'R. A. Sunyaev'
p563
I1889
sS'G. G. Pooley'
p564
I765
sS'V. M. Chechetkin'
p565
I2429
sS'Rachel L. Webster'
p566
I2024
sS'U. Fritze-v. Alvensleben'
p567
I2405
sS'Tsvi Piran'
p568
I2403
sS'J. H. Knapen'
p569
I1051
sS'W. R. Forman'
p570
I2484
sS'Bruce E. Woodgate'
p571
I295
sS'Dean E. McLaughlin'
p572
I541
sS'G. Tagliaferri'
p573
I816
sS'David A. Turnshek'
p574
I520
sS'Ronald A. Remillard'
p575
I2093
sS'C. C. Steidel'
p576
I311
sS'Edward W. Olszewski'
p577
I630
sS'Joao Magueijo'
p578
I1175
sS'A. N. Taylor'
p579
I107
sS'E. Pian'
p580
I610
sS'Charles D. Bailyn'
p581
I379
sS'W. van Driel'
p582
I2494
sS'Y. Sato'
p583
I2533
sS'Toshifumi Futamase'
p584
I2396
sS'K. Reinsch'
p585
I1270
sS'J. Menzies'
p586
I1093
sS'D. M. Worrall'
p587
I477
sS'A. L. Roy'
p588
I87
sS'M. Cocchi'
p589
I1436
sS'Jens Hjorth'
p590
I1162
sS'Will Saunders'
p591
I2504
sS'A. Ferrara'
p592
I48
sS'Eric G. Blackman'
p593
I650
sS'L. V. E. Koopmans'
p594
I1376
sS'Mario Mateo'
p595
I1589
sS'M. Moriya'
p596
I1515
sS'Paul L. Schechter'
p597
I1841
sS'Francesco Sylos Labini'
p598
I728
sS'Raul Jimenez'
p599
I2033
sS'Y. Mizumoto'
p600
I2530
sS'Jean P. Brodie'
p601
I1154
sS'O. Lahav'
p602
I1707
sS'G. B. Lima Neto'
p603
I741
sS'G. Neugebauer'
p604
I800
sS'H. J. Voelk'
p605
I885
sS'F. Haardt'
p606
I690
sS'T. Narita'
p607
I2316
sS'N. E. Kassim'
p608
I1656
sS'S. Huettemeister'
p609
I2149
sS'Norbert Langer'
p610
I1700
sS'L. Bassani'
p611
I1322
sS'Lee Hartmann'
p612
I1394
sS'Robert J. Brunner'
p613
I2074
sS'E. Bertin'
p614
I568
sS'S. Prunet'
p615
I2193
sS'Michiel R. Hogerheijde'
p616
I1638
sS'J. M. van der Hulst'
p617
I1090
sS'T. Bulik'
p618
I2280
sS'Andreas Burkert'
p619
I195
sS'R. D. Jeffries'
p620
I1914
sS'R. Giacconi'
p621
I1942
sS'Uros Seljak'
p622
I2416
sS'E. Xanthopoulos'
p623
I621
sS'S. M. Viegas'
p624
I2174
sS'Andrew W. Blain'
p625
I206
sS'B. P. Crill'
p626
I256
sS'B. Leibundgut'
p627
I249
sS'P. L. Hammersley'
p628
I1768
sS'L. Pasquini'
p629
I1365
sS'K. Horne'
p630
I1241
sS'D. L. Clements'
p631
I462
sS'J. E. Carlstrom'
p632
I1028
sS'S. Jha'
p633
I2157
sS'L. K. Hunt'
p634
I1348
sS'Ralf Klessen'
p635
I2028
sS'B. G. Elmegreen'
p636
I237
sS'K. Ganga'
p637
I1235
sS'Peter Goldreich'
p638
I1855
sS'A. Kogut'
p639
I83
sS'T. Forveille'
p640
I2287
sS'J. Nevalainen'
p641
I1096
sS'E. Churazov'
p642
I574
sS'R. D. Blum'
p643
I1911
sS'J. Barnstedt'
p644
I1003
sS'Donald F. Figer'
p645
I552
sS'R. Wielen'
p646
I2021
sS'D. R. Patton'
p647
I495
sS'C. Collins'
p648
I316
sS'S. Mereghetti'
p649
I2182
sS'Tiziana Di Matteo'
p650
I2380
sS"S. D'Odorico"
p651
I2134
sS'D. A. Frail'
p652
I417
sS'M. Centurion'
p653
I1435
sS'Hsiao-Wen Chen'
p654
I932
sS'Stefanie Komossa'
p655
I2260
sS'Frank Verbunt'
p656
I732
sS'Abraham Loeb'
p657
I156
sS'John P. Hughes'
p658
I1191
sS'W. H. G. Lewin'
p659
I2464
sS'B. G. Piner'
p660
I238
sS'D. Cesarsky'
p661
I432
sS'Michael A. Strauss'
p662
I1622
sS'C. Cacciari'
p663
I312
sS'Hale Bradt'
p664
I915
sS'M. Lacy'
p665
I1496
sS'A. Magazzu'
p666
I96
sS'Philip R. Maloney'
p667
I1867
sS'N. Caldwell'
p668
I1653
sS'C. -H. Lee'
p669
I300
sS'Scott Tremaine'
p670
I2231
sS'C. N. Tadhunter'
p671
I348
sS'Joop Schaye'
p672
I1202
sS'Daniel Schaerer'
p673
I514
sS'N. A. Levenson'
p674
I1648
sS'X. Luri'
p675
I2516
sS'Sebastian Lopez'
p676
I2233
sS'S. J. Warren'
p677
I2156
sS'Guillermo Tenorio-Tagle'
p678
I857
sS'A. R. King'
p679
I122
sS'B. W. Miller'
p680
I270
sS'L. Girardi'
p681
I1337
sS'J. D. Monnier'
p682
I1022
sS'A. Boscaleri'
p683
I14
sS'Michael D. Gladders'
p684
I1626
sS'Todd M. Tripp'
p685
I2384
sS'Masahiro Nagashima'
p686
I1606
sS'E. Garcia-Berro'
p687
I582
sS'G. J. Qiao'
p688
I782
sS'R. S. Warwick'
p689
I1997
sS'H. C. Ford'
p690
I870
sS'D. L. DePoy'
p691
I463
sS'H. M. P. Couchman'
p692
I897
sS'V. Schoenfelder'
p693
I2438
sS'M. S. Yun'
p694
I1540
sS'Omar Lopez-Cruz'
p695
I1716
sS'P. Gallais'
p696
I1750
sS'W. Coburn'
p697
I2455
sS'E. Kuulkers'
p698
I589
sS'A. Bragaglia'
p699
I17
sS'M. J. Church'
p700
I1479
sS'G. Ghisellini'
p701
I767
sS'E. M. Leitch'
p702
I595
sS'C. R. Kerton'
p703
I355
sS'O. R. Williams'
p704
I1711
sS'M. Villar-Martin'
p705
I1564
sS'I. A. Steele'
p706
I940
sS'W. J. G. de Blok'
p707
I2470
sS'Steve Maddox'
p708
I2267
sS'France Allard'
p709
I722
sS'B. P. Holden'
p710
I257
sS'G. C. Clayton'
p711
I747
sS'T. McKay'
p712
I2309
sS'D. L. Jones'
p713
I465
sS'G. Israelian'
p714
I780
sS'Ramesh Narayan'
p715
I2031
sS'Paul R. Shapiro'
p716
I1844
sS'I. Hubeny'
p717
I951
sS'G. Bertin'
p718
I743
sS'C. Vignali'
p719
I363
sS'M. C. Britton'
p720
I1430
sS'A. Oemler'
p721
I109
sS'K. M. Menten'
p722
I1254
sS'John S. Mulchaey'
p723
I1193
sS'L. Burderi'
p724
I1325
sS'Peter Hoeflich'
p725
I1857
sS'Julian Krolik'
p726
I1217
sS"P. T. O'Brien"
p727
I1807
sS'P. Lundqvist'
p728
I1772
sS'Alain Coc'
p729
I164
sS'Barry F. Madore'
p730
I275
sS'Jay D. Salmonson'
p731
I1152
sS'M. S. Marley'
p732
I1538
sS'S. P. Driver'
p733
I2188
sS'C. L. Sarazin'
p734
I337
sS'Enrique Vazquez-Semadeni'
p735
I644
sS'Craig L. Sarazin'
p736
I413
sS'C. M. Carollo'
p737
I341
sS'K. Zebrun'
p738
I1280
sS'Paolo Tozzi'
p739
I1828
sS'Joel R. Primack'
p740
I1177
sS'James S. Dunlop'
p741
I1147
sS'S. A. Baum'
p742
I2102
sS'P. Salucci'
p743
I1801
sS'P. Grandi'
p744
I1753
sS'A. Parmar'
p745
I117
sS'A. V. Kravtsov'
p746
I144
sS'A. S. Szalay'
p747
I130
sS'C. D. Impey'
p748
I319
sS'E. Vangioni-Flam'
p749
I620
sS'G. Schneider'
p750
I809
sS'E. Tago'
p751
I616
sS'Scott Burles'
p752
I2227
sS'Hyun Kyu Lee'
p753
I939
sS'David J. Helfand'
p754
I527
sS'M. J. Hardcastle'
p755
I1483
sS'M. B. Davies'
p756
I1419
sS'T. Tanimori'
p757
I2341
sS'Stacy McGaugh'
p758
I2258
sS'A. A. Zijlstra'
p759
I4
sS'B. J. Wilkes'
p760
I245
sS'William C. Keel'
p761
I2506
sS'Bhuvnesh Jain'
p762
I284
sS'P. Ruiz-Lapuente'
p763
I1797
sS'Simon Portegies Zwart'
p764
I2252
sS'I. S. Glass'
p765
I961
sS'Peter Schneider'
p766
I1862
sS'G. Bodo'
p767
I744
sS'Romeel Dav\xc3\xa9'
p768
I2092
sS'Naoki Itoh'
p769
I1681
sS'M. J. Drinkwater'
p770
I1481
sS'A. Orr'
p771
I112
sS'M. J. Barlow'
p772
I1478
sS'D. Barrado y Navascues'
p773
I424
sS'A. Vidal-Madjar'
p774
I145
sS'A. M. Ghez'
p775
I93
sS'M. Dantel-Fort'
p776
I1444
sS'W. Sutherland'
p777
I2487
sS'C. Burigana'
p778
I310
sS'T. Richtler'
p779
I2332
sS'Tadayuki Takahashi'
p780
I2355
sS'Paul A. Crowther'
p781
I1834
sS'R. de Ritis'
p782
I2023
sS'Seb Oliver'
p783
I2232
sS'L. Portinari'
p784
I1368
sS'D. B. Sanders'
p785
I423
sS'J. K. McCarthy'
p786
I1068
sS'V. Cayatte'
p787
I2421
sS'T. Miyaji'
p788
I2312
sS'A. Kawachi'
p789
I82
sS'R. L. Duncombe'
p790
I1957
sS'R. G. Carlberg'
p791
I1938
sS'Pavel Kroupa'
p792
I1846
sS'J. Chris Blades'
p793
I1017
sS'E. M. Sadler'
p794
I597
sS'Laura Ferrarese'
p795
I1389
sS'Michael Blanton'
p796
I1623
sS'R. Michael Rich'
p797
I1968
sS'C. H. Nelson'
p798
I329
sS'T. Quinn'
p799
I2327
sS'K. Tsinganos'
p800
I1276
sS'A. Pizzella'
p801
I119
sS'R. Chris Smith'
p802
I1906
sS'A. Campos'
p803
I26
sS'Lars Hernquist'
p804
I1388
sS'C. G. Mundell'
p805
I325
sS'Naoki Seto'
p806
I1682
sS'C. Mendes de Oliveira'
p807
I346
sS'J. Krautter'
p808
I1074
sS'P. Amram'
p809
I1729
sS'J. G. Kirk'
p810
I1043
sS'D. D. Sasselov'
p811
I436
sS'Robert S. Hill'
p812
I2078
sS'P. Uttley'
p813
I1813
sS'Ravi K. Sheth'
p814
I2034
sS'P. A. M. van Hoof'
p815
I1725
sS'E. Gr\xc3\xbcn'
p816
I585
sS'Jane C. Charlton'
p817
I1149
sS'Yoshiaki Sofue'
p818
I2545
sS'Naoshi Sugiyama'
p819
I1683
sS'R. A. Preston'
p820
I1887
sS'Howard E. Bond'
p821
I931
sS'H. Pedersen'
p822
I902
sS'Stuart N. Vogel'
p823
I2271
sS'T. Joseph W. Lazio'
p824
I2300
sS'G. K. Miley'
p825
I785
sS'Michael Bolte'
p826
I1624
sS'S. E. Thorsett'
p827
I2140
sS'P. A. Thomas'
p828
I1728
sS'B. Brandl'
p829
I230
sS'P. T. de Zeeuw'
p830
I1809
sS'J. Isern'
p831
I1061
sS'L. Danese'
p832
I1333
sS'D. Saumon'
p833
I500
sS'Eline Tolstoy'
p834
I638
sS'Y. Matsubara'
p835
I2528
sS'F. H. Briggs'
p836
I689
sS'J. Knodlseder'
p837
I1073
sS'Pawan Kumar'
p838
I1847
sS'Pasquale Blasi'
p839
I1829
sS'Kouji Ohta'
p840
I1311
sS'G. Paturel'
p841
I802
sS'T. J. -L. Courvoisier'
p842
I2292
sS'F. Falchi'
p843
I683
sS'D. de Martino'
p844
I508
sS'W. Freudling'
p845
I2462
sS'Renyue Cen'
p846
I2044
sS'L. Miller'
p847
I1360
sS'David Tytler'
p848
I536
sS'Tom Quinn'
p849
I2388
sS'I. Negueruela'
p850
I958
sS'M. E. Kaiser'
p851
I1451
sS'Keith Horne'
p852
I1295
sS'C. Jones'
p853
I333
sS'J. J. Mohr'
p854
I1064
sS'A. Cavaliere'
p855
I29
sS'M. Bureau'
p856
I1428
sS'B. R. McNamara'
p857
I260
sS'J. Greiner'
p858
I1048
sS'Ian Smail'
p859
I972
sS'Vijay K. Narayanan'
p860
I2444
sS'A. Sandage'
p861
I133
sS'J. M. Marcaide'
p862
I1083
sS'Robert D. Preece'
p863
I2070
sS'Marc Davis'
p864
I1573
sS'A. C. Fabian'
p865
I23
sS'P. A. Mazzali'
p866
I1726
sS'H. Muraishi'
p867
I899
sS'F. Boulanger'
p868
I673
sS'K. Glazebrook'
p869
I1237
sS'J. H. P. Wu'
p870
I1052
sS'Evan Scannapieco'
p871
I658
sS'G. Zamorani'
p872
I822
sS'M. Yoshida'
p873
I1567
sS'C. A. Haswell'
p874
I302
sS'Jens Schmalzing'
p875
I1163
sS'M. -P. Veron-Cetty'
p876
I1408
sS'S. Arnouts'
p877
I2110
sS'J. M. Colberg'
p878
I1081
sS'Geoffrey C. Bower'
p879
I832
sS'C. Charbonnel'
p880
I314
sS'Vladimir Osherovich'
p881
I2445
sS'Ben Moore'
p882
I277
sS'L. Bildsten'
p883
I1323
sS'J. P. Kneib'
p884
I1102
sS'E. V. Mikheeva'
p885
I619
sS'Cristina Chiappini'
p886
I415
sS'Elisabeth Vangioni-Flam'
p887
I641
sS'R. Dominguez-Tenreiro'
p888
I1918
sS'Anatoly A. Klypin'
p889
I191
sS'P. Cinzano'
p890
I1734
sS'C. Gry'
p891
I328
sS'N. Christlieb'
p892
I1654
sS'P. Kaaret'
p893
I1765
sS'A. K. Romer'
p894
I80
sS'D. C. Backer'
p895
I428
sS'Ue-Li Pen'
p896
I2412
sS'Rodrigo Ibata'
p897
I2083
sS'Adrian L. Melott'
p898
I162
sS'Tomonori Totani'
p899
I2393
sS'V. Celebonovic'
p900
I2422
sS'W. Gringel'
p901
I2463
sS'Roger W. Romani'
p902
I2089
sS'A. F. M. Moorwood'
p903
I47
sS'T. Dotani'
p904
I2285
sS'Peter Berczik'
p905
I1851
sS'S. Marshall'
p906
I2178
sS'S. Casertano'
p907
I2124
sS'D. Puy'
p908
I488
sS'Y. -Z. Qian'
p909
I2521
sS'E. B. Waltman'
p910
I565
sS'B. Zhang'
p911
I272
sS'Kenneth Wood'
p912
I1302
sS'Donald Q. Lamb'
p913
I554
sS'V. P. Reshetnikov'
p914
I2434
sS'Patrick McDonald'
p915
I1832
sS'P. Szkody'
p916
I1806
sS'A. Burkert'
p917
I19
sS'Philip C. Myers'
p918
I1864
sS'Jon Loveday'
p919
I1197
sS'V. I. Slysh'
p920
I2426
sS'Steven S. Vogt'
p921
I2269
sS'E. Lastennet'
p922
I592
sS'Tod Strohmayer'
p923
I2383
sS'S. Ettori'
p924
I2142
sS'Edward L. Wright'
p925
I629
sS'S. Zaroubi'
p926
I2213
sS'L. Lara'
p927
I1353
sS'A. R. Patnaik'
p928
I123
sS'M. Davis'
p929
I1445
sS'Chris Mihos'
p930
I388
sS'P. A. James'
p931
I1724
sS'H. J. A. Rottgering'
p932
I882
sS'S. A. Dazeley'
p933
I2104
sS'L. Kuiper'
p934
I1350
sS'S. E. Woosley'
p935
I2141
sS'F. X. Timmes'
p936
I714
sS'D. W. Fox'
p937
I505
sS'S. A. Stanford'
p938
I2107
sS'Qingjuan Yu'
p939
I1881
sS'L. Toffolatti'
p940
I1375
sS'P. N. Bhat'
p941
I1782
sS'Renee C. Kraan-Korteweg'
p942
I2042
sS'Peter A. Thomas'
p943
I1849
sS'J. K. Webb'
p944
I1069
sS'E. J. M. Colbert'
p945
I588
sS'A. Blanchard'
p946
I13
sS'A. Georgakakis'
p947
I57
sS'Daniel E. Reichart'
p948
I512
sS'S. Campana'
p949
I2122
sS'V. G. Gurzadyan'
p950
I2425
sS'E. Perlman'
p951
I609
sS'Robert J. Scherrer'
p952
I2075
sS'Rudy Wijnands'
p953
I2099
sS'W. N. Brandt'
p954
I2480
sS'Max Tegmark'
p955
I1618
sS'Alain Smette'
p956
I165
sS'Patrick B. Hall'
p957
I1830
sS'R. L. Webster'
p958
I1958
sS'W. L. Holzapfel'
p959
I2477
sS'Saul Rappaport'
p960
I2224
sS'F. Mannucci'
p961
I698
sS'S. L. Bridle'
p962
I2162
sS'Volker Springel'
p963
I2446
sS'J. G. Bartlett'
p964
I1042
sS'K. -L. Kratz'
p965
I1223
sS'W. A. Dziembowski'
p966
I2447
sS'Richard W. Pogge'
p967
I2058
sS'B. Zuckerman'
p968
I273
sS'George M. Fuller'
p969
I840
sS'Lev Titarchuk'
p970
I1398
sS'A. Oscoz'
p971
I113
sS'Andrea Possenti'
p972
I194
sS'R. J. Wilman'
p973
I1955
sS'Paolo Salucci'
p974
I1827
sS'A. N. Burenkov'
p975
I104
sS'Stephen E. Schneider'
p976
I2264
sS'V. R. Chitnis'
p977
I2435
sS'Gary A. Mamon'
p978
I826
sS'Yan-Jie Xue'
p979
I2539
sS'I. Zehavi'
p980
I969
sS'M. J. Rees'
p981
I1489
sS'H. Liang'
p982
I893
sS'Ken Ebisawa'
p983
I1296
sS'D. F. Figer'
p984
I444
sS'A. W. Strong'
p985
I148
sS'Arjun Dey'
p986
I218
sS'G. Chincarini'
p987
I752
sS'C. S. Frenk'
p988
I358
sS'Fred C. Adams'
p989
I733
sS'R. E. Lingenfelter'
p990
I1922
sS'R. E. Griffiths'
p991
I1921
sS'Istvan Szapudi'
p992
I980
sS'N. Gehrels'
p993
I1658
sS'P. Picozza'
p994
I1791
sS'S. Udry'
p995
I2204
sS'H. M. J. Boffin'
p996
I896
sS'K. Nomoto'
p997
I1261
sS'T. C. Weekes'
p998
I2282
sS'J. A. Peacock'
p999
I993
sS'A. Efstathiou'
p1000
I45
sS'HongSheng Zhao'
p1001
I930
sS'Shai Kaspi'
p1002
I2239
sS'O. Straniero'
p1003
I1712
sS'M. Pettini'
p1004
I1523
sS'M. Catelan'
p1005
I1434
sS'M. Zoccali'
p1006
I1568
sS'Andrew S. Fruchter'
p1007
I204
sS'Chiaki Kobayashi'
p1008
I384
sS'Shiv K. Sethi'
p1009
I2243
sS'N. W. Evans'
p1010
I1677
sS'S. Moehler'
p1011
I2184
sS'F. La Franca'
p1012
I696
sS'U. Hopp'
p1013
I2408
sS'F. Palla'
p1014
I705
sS'J. Torra'
p1015
I1124
sS'R. E. Spencer'
p1016
I1925
sS'D. Weistrop'
p1017
I507
sS'Gabriela Canalizo'
p1018
I823
sS'E. M. Puchnarewicz'
p1019
I596
sS'P. von Ballmoos'
p1020
I1821
sS'R. G. Bower'
p1021
I1937
sS'W. Bednarek'
p1022
I2450
sS'Shaun Cole'
p1023
I2241
sS'J. A. Zensus'
p1024
I997
sS'F. De Paolis'
p1025
I681
sS'Ronald E. Taam'
p1026
I2094
sS'A. P. Lobanov'
p1027
I114
sS'Bohdan Paczynski'
p1028
I286
sS'Shude Mao'
p1029
I2244
sS'Z. -Q. Shen'
p1030
I2553
sS'T. L. Wilson'
p1031
I2303
sS'J. A. S. Lima'
p1032
I995
sS'S. Borgani'
p1033
I2117
sS'A. Fontana'
p1034
I50
sS'Ivan Hubeny'
p1035
I982
sS'Puragra Guhathakurta'
p1036
I1878
sS'G. Cusumano'
p1037
I754
sS'Rob Ivison'
p1038
I2063
sS'Una Hwang'
p1039
I2415
sS'R. C. Kraan-Korteweg'
p1040
I1900
sS'Rodrigo A. Ibata'
p1041
I2082
sS'D. M. Wei'
p1042
I476
sS'E. M. Corsini'
p1043
I594
sS'Robert A. Fesen'
p1044
I2065
sS'Masayuki Umemura'
p1045
I1608
sS'G. F. Bignami'
p1046
I759
sS'Tadayasu Dotani'
p1047
I2354
sS'D. Petry'
p1048
I486
sS'Gary J. Hill'
p1049
I828
sS'V. Mohan'
p1050
I2431
sS'G. Brunetti'
p1051
I746
sS'Roger L. Davies'
p1052
I2088
sS'T. P. Krichbaum'
p1053
I2323
sS'Jason X. Prochaska'
p1054
I1150
sS'Saurabh Jha'
p1055
I2225
sS'Simon F. Portegies Zwart'
p1056
I2248
sS'P. Bonifacio'
p1057
I1732
sS'R. F. Mushotzky'
p1058
I1928
sS'M. Bernardi'
p1059
I1423
sS'Peter G. Jonker'
p1060
I1854
sS'K. Sakurazawa'
p1061
I1275
sS'R. Schlickeiser'
p1062
I2003
sS'W. van Breugel'
p1063
I2493
sS'Y. Muraki'
p1064
I2531
sS'Nino Panagia'
p1065
I1694
sS'L. Homer'
p1066
I1343
sS'A. J. Burgasser'
p1067
I68
sS'Bernd Aschenbach'
p1068
I281
sS'Kenji Tomita'
p1069
I1299
sS'P. J. Quinn'
p1070
I1761
sS'H. M. Antia'
p1071
I895
sS'R. J. Reynolds'
p1072
I1952
sS'A. Burrows'
p1073
I20
sS'T. R. Gull'
p1074
I2330
sS'R. A. Windhorst'
p1075
I1891
sS'F. Garzon'
p1076
I688
sS'Kohji Yoshikawa'
p1077
I1309
sS'A. Wolter'
p1078
I152
sS'M. Arnould'
p1079
I1417
sS'H. Dejonghe'
p1080
I872
sS'R. Paul Butler'
p1081
I1986
sS'G. Miley'
p1082
I798
sS'V. M. Kaspi'
p1083
I2430
sS'Daniel E. Vanden Berk'
p1084
I513
sS'Glenn Schneider'
p1085
I849
sS'M. J. Lehner'
p1086
I1487
sS'Risa H. Wechsler'
p1087
I2061
sS'Tarun Souradeep'
p1088
I2364
sS'Daniele Fargion'
p1089
I516
sS'S. Colafrancesco'
p1090
I2127
sS'S. Cassisi'
p1091
I2125
sS'J. P. Finley'
p1092
I1098
sS'Geoffrey N. Pendleton'
p1093
I834
sS'Toshitaka Kajino'
p1094
I2397
sS'T. Yanagisawa'
p1095
I2350
sS'G. J. Wasserburg'
p1096
I784
sS'Greg Ushomirsky'
p1097
I852
sS'James Chiang'
p1098
I1139
sS'Richard S. Ellis'
p1099
I2055
sS'V. Avila-Reese'
p1100
I2418
sS'R. Sadat'
p1101
I1998
sS'J. Ryan'
p1102
I1113
sS'T. Jenness'
p1103
I2299
sS'V. Turchaninov'
p1104
I2439
sS'Thibaut Lery'
p1105
I2371
sS'Piet Hut'
p1106
I1872
sS'S. Torres'
p1107
I2203
sS'R. J. Weymann'
p1108
I1954
sS'P. Molaro'
p1109
I1780
sS'S. Golenetskii'
p1110
I2144
sS'K. J. Fricke'
p1111
I1244
sS'Robert A. Benjamin'
p1112
I2064
sS'J. R. Stauffer'
p1113
I1111
sS'Chris Flynn'
p1114
I386
sS'Judith G. Cohen'
p1115
I1215
sS'S. Molendi'
p1116
I2185
sS'Robert H. Becker'
p1117
I2073
sS'P. J. Diamond'
p1118
I1757
sS'Julianne J. Dalcanton'
p1119
I1218
sS'Toru Yamada'
p1120
I2395
sS'G. J. Ferland'
p1121
I781
sS'M. Casse'
p1122
I1432
sS'Chris J. Willott'
p1123
I387
sS'S. W. Allen'
p1124
I2210
sS'Alexandre Refregier'
p1125
I178
sS'G. Malaguti'
p1126
I793
sS'Diego G. Lambas'
p1127
I545
sS'M. Gilfanov'
p1128
I1462
sS'H. Bushouse'
p1129
I869
sS'J. Gorosabel'
p1130
I1046
sS'D. T. Frayer'
p1131
I501
sS'J. L. Zdunik'
p1132
I1078
sS'G. S. Bisnovatyi-Kogan'
p1133
I808
sS'M. A. Garrett'
p1134
I1410
sS'M. Lopez-Corredoira'
p1135
I1501
sS'Marc Postman'
p1136
I1575
sS'M. Hernanz'
p1137
I1472
sS'Piercarlo Bonifacio'
p1138
I1870
sS'K. Z. Stanek'
p1139
I1279
sS'Martin Kerscher'
p1140
I1604
sS'P. Ubertini'
p1141
I1812
sS'Michael D. Gregg'
p1142
I1627
sS'T. J. Pearson'
p1143
I2296
sS'Joel N. Bregman'
p1144
I1176
sS'D. Dal Fiume'
p1145
I437
sS'Roelof S. de Jong'
p1146
I2084
sS'O. Le Fevre'
p1147
I1709
sS'Jeremiah P. Ostriker'
p1148
I1164
sS'A. Benoit'
p1149
I12
sS'M. Bersanelli'
p1150
I1424
sS'Jean-Paul Kneib'
p1151
I1156
sS'Charles F. Gammie'
p1152
I381
sS'F. Nagase'
p1153
I703
sS'J. Truemper'
p1154
I1125
sS'William T. Reach'
p1155
I2510
sS'C. Benoist'
p1156
I309
sS'E. Zucca'
p1157
I623
sS'G. Sonneborn'
p1158
I812
sS'H. -W. Rix'
p1159
I862
sS'Stuart Bowyer'
p1160
I2270
sS'J. Casares'
p1161
I1015
sS'S. Dreizler'
p1162
I2139
sS'Kandaswamy Subramanian'
p1163
I1282
sS'Ann I. Zabludoff'
p1164
I211
sS'M. Salvati'
p1165
I1543
sS'H. Sato'
p1166
I906
sS'W. D. Cotton'
p1167
I2458
sS'T. Ohashi'
p1168
I2318
sS'Eric F. Bell'
p1169
I649
sS'F. Durret'
p1170
I682
sS'Sidney van den Bergh'
p1171
I2245
sS'M. Honda'
p1172
I1474
sS'G. Dubus'
p1173
I756
sS'S. Colombi'
p1174
I2129
sS'G. M. Stirpe'
p1175
I791
sS'R. Plaga'
p1176
I1989
sS'A. J. Connolly'
p1177
I70
sS'D. Lutz'
p1178
I472
sS'D. Engels'
p1179
I443
sS'N. R. Tanvir'
p1180
I1673
sS'J. S. Gallagher'
p1181
I1118
sS'J. J. Salzer'
p1182
I1065
sS'E. Baron'
p1183
I566
sS'Avishai Dekel'
p1184
I224
sS'D. L. Welch'
p1185
I469
sS'K. Kuijken'
p1186
I1248
sS'Tetsu Kitayama'
p1187
I2366
sS'S. Corbel'
p1188
I2130
sS'I. E. Papadakis'
p1189
I946
sS'D. R. Marlow'
p1190
I494
sS'R. Davies'
p1191
I1915
sS'T. Oosterloo'
p1192
I2321
sS'A. Del Popolo'
p1193
I38
sS'M. Catanese'
p1194
I1433
sS'T. Kifune'
p1195
I2301
sS'P. -A. Duc'
p1196
I1720
sS'Fabio Governato'
p1197
I717
sS'T. Shanks'
p1198
I2336
sS'Harvey B. Richer'
p1199
I919
sS'Elisabete M. de Gouveia Dal Pino'
p1200
I640
sS'F. Allard'
p1201
I668
sS'L. Hanlon'
p1202
I1342
sS'S. T. Hodgkin'
p1203
I2201
sS"N. D'Amico"
p1204
I1655
sS'K. Bennett'
p1205
I1227
sS'M. Limongi'
p1206
I1500
sS'C. Ledoux'
p1207
I338
sS'E. Trussoni'
p1208
I617
sS'M. J. S. Smith'
p1209
I1490
sS'A. V. Filippenko'
p1210
I143
sS'S. M. Bradbury'
p1211
I2171
sS'N. P. F. McKay'
p1212
I1670
sS'Lynne A. Hillenbrand'
p1213
I1407
sS'R. J. McLure'
p1214
I1950
sS'P. Padovani'
p1215
I1787
sS'D. G. York'
p1216
I448
sS'Andrea Ferrara'
p1217
I193
sS'D. Kunth'
p1218
I460
sS'G. A. Kriss'
p1219
I738
sS'Benjamin D. Wandelt'
p1220
I279
sS'P. J. Shelus'
p1221
I1763
sS'Yasushi Fukazawa'
p1222
I2541
sS'J. V. Wall'
p1223
I1127
sS'J. S. Alcaniz'
p1224
I1114
sS'I. Saviane'
p1225
I963
sS'T. Padmanabhan'
p1226
I2324
sS'Lars Bildsten'
p1227
I1387
sS'J. U. Fynbo'
p1228
I1126
sS'B. Guiderdoni'
p1229
I239
sS'Simon D. M. White'
p1230
I2247
sS'Luigi Foschini'
p1231
I1403
sS'Jose Maza'
p1232
I1204
sS'R. Moderski'
p1233
I1970
sS'Joseph L. Hora'
p1234
I1208
sS'J. H. Fan'
p1235
I1050
sS'M. Marconi'
p1236
I1506
sS'C. Sneden'
p1237
I361
sS'L. I. Gurvits'
p1238
I1344
sS'D. P. Bennett'
p1239
I484
sS'B. M. Peterson'
p1240
I251
sS'Lawrence M. Krauss'
p1241
I1393
sS'W. Boschin'
p1242
I2451
sS'L. R. Jones'
p1243
I1369
sS'Jan van Paradijs'
p1244
I1148
sS'Enzo Branchini'
p1245
I645
sS'Scott J. Kenyon'
p1246
I2230
sS'Kensuke Imanishi'
p1247
I1303
sS'Yasushi Ikebe'
p1248
I2542
sS'J. P. Huchra'
p1249
I1101
sS'R. C. Vermeulen'
p1250
I1903
sS'A. Tomaney'
p1251
I140
sS'T. Storchi-Bergmann'
p1252
I2337
sS'Tom Theuns'
p1253
I2390
sS'George Helou'
p1254
I838
sS'D. Geisler'
p1255
I449
sS'D. Q. Lamb'
p1256
I489
sS'G. A. Tammann'
p1257
I740
sS'J. Christopher Howk'
p1258
I1019
sS'Edward C. Moran'
p1259
I627
sS'Bradford B. Behr'
p1260
I290
sS'L. Wisotzki'
p1261
I1382
sS'M. Tagger'
p1262
I1556
sS'Raymundo Baptista'
p1263
I2038
sS'Ph. Jetzer'
p1264
I1863
sS'E. Ellingson'
p1265
I580
sS'A. G. de Bruyn'
p1266
I56
sS'Richard I. Epstein'
p1267
I2052
sS'A. E. Lange'
p1268
I42
sS'S. Schindler'
p1269
I2198
sS'N. Inoue'
p1270
I1659
sS'David S. Graff'
p1271
I535
sS'Gary Bernstein'
p1272
I827
sS'T. Maccacaro'
p1273
I2308
sS'Roger D. Blandford'
p1274
I2087
sS'J. A. Frogel'
p1275
I991
sS'J. Kushida'
p1276
I1075
sS'Tom Richtler'
p1277
I2389
sS'Andrei M. Beloborodov'
p1278
I197
sS'John Scalo'
p1279
I1194
sS'J. C. B. Papaloizou'
p1280
I1008
sS'Angela V. Olinto'
p1281
I209
sS'Eric Agol'
p1282
I646
sS'Alessandro Bressan'
p1283
I173
sS'Yoshiaki Taniguchi'
p1284
I2546
sS'C. S. Kochanek'
p1285
I359
sS'B. J. Boyle'
p1286
I242
sS'Christopher Sneden'
p1287
I399
sS'E. F. van Dishoeck'
p1288
I581
sS'J. W. Truran'
p1289
I1130
sS'Tom Broadhurst'
p1290
I2387
sS'S. Hanany'
p1291
I2147
sS'T. Nakamura'
p1292
I2315
sS'D. B. Kieda'
p1293
I422
sS'R. Bender'
p1294
I1895
sS'I. Ferreras'
p1295
I948
sS'C. Firmani'
p1296
I323
sS'Klaus Dolag'
p1297
I1308
sS'David H. Cohen'
p1298
I524
sS'Thomas Quinn'
p1299
I2374
sS'Dante Minniti'
p1300
I517
sS'L. F. Rodriguez'
p1301
I1335
sS'S. A. Eales'
p1302
I2105
sS'P. F. L. Maxted'
p1303
I1743
sS'Y. Ueda'
p1304
I2536
sS'Jill Bechtold'
p1305
I1171
sS'X. Barcons'
p1306
I2514
sS'Prasad Subramanian'
p1307
I1875
sS'A. J. Barger'
p1308
I65
sS'Mikhail V. Medvedev'
p1309
I1641
sS'Eliana Palazzi'
p1310
I637
sS'M. Murgia'
p1311
I1517
sS'Alexander Knebe'
p1312
I176
sS'Brad M. S. Hansen'
p1313
I289
sS'Eliot Quataert'
p1314
I639
sS'R. M. Rich'
p1315
I1963
sS'P. M. Ogle'
p1316
I1773
sS'Igor V. Igumenshchev'
p1317
I975
sS'Andrei Gruzinov'
p1318
I196
sS'R. Cid Fernandes'
p1319
I1907
sS'S. A. Colgate'
p1320
I2103
sS'Friedrich-Karl Thielemann'
p1321
I735
sS'D. Dallacasa'
p1322
I438
sS'R. S. Ellis'
p1323
I1995
sS'Belinda J. Wilkes'
p1324
I276
sS'Sergei A. Levshakov'
p1325
I2235
sS'R. R. Gal'
p1326
I1990
sS'J. -P. Kneib'
p1327
I989
sS'P. G. Ferreira'
p1328
I1747
sS'D. Chakrabarty'
p1329
I433
sS'P. Giommi'
p1330
I1751
sS'S. L. Marshall'
p1331
I2164
sS'Chris Sneden'
p1332
I390
sS'Gregory G. Fahlman'
p1333
I853
sS'Marcia J. Rieke'
p1334
I1576
sS'Jonathan P. D. Mittaz'
p1335
I1200
sS'N. Jackson'
p1336
I1661
sS'M. J. Page'
p1337
I1488
sS'B. J. Mochejska'
p1338
I243
sS'T. W. B. Muxlow'
p1339
I2345
sS'Michel Casse'
p1340
I1637
sS'D. H. Hughes'
p1341
I452
sS'N. Langer'
p1342
I1663
sS'G. G. Pavlov'
p1343
I764
sS'Donald A. Smith'
p1344
I549
sS'P. Fosalba'
p1345
I1744
sS'Xiaohui Fan'
p1346
I2518
sS'D. R. Jiang'
p1347
I492
sS'H. Kubo'
p1348
I888
sS'Arnon Dar'
p1349
I219
sS'HEGRA Collaboration'
p1350
I912
sS'Martin J. Rees'
p1351
I1603
sS'T. B. Williams'
p1352
I2276
sS'D. Axon'
p1353
I421
sS'R. P. Fender'
p1354
I1979
sS'P. Richter'
p1355
I1793
sS'Rick Edelson'
p1356
I2060
sS'G. Cecil'
p1357
I750
sS'Marc Kamionkowski'
p1358
I1574
sS'T. M. Heckman'
p1359
I2306
sS'Adam Frank'
p1360
I159
sS'B. Fort'
p1361
I235
sS'G. Hebrard'
p1362
I774
sS'Sabino Matarrese'
p1363
I2217
sS'S. T. Myers'
p1364
I2202
sS'N. Z. Scoville'
p1365
I1679
sS'Yasushi Suto'
p1366
I2543
sS'A. N. Parmar'
p1367
I106
sS'E. Battaner'
p1368
I567
sS'A. Capetti'
p1369
I27
sS'S. Capozziello'
p1370
I2123
sS'G. C. Perola'
p1371
I748
sS'SDSS Collaboration'
p1372
I2215
sS'Todor Stanev'
p1373
I2385
sS'J. E. Pringle'
p1374
I1035
sS'Daniel A. Dale'
p1375
I510
sS'Hume A. Feldman'
p1376
I935
sS'A. P. Smale'
p1377
I115
sS'J. Bland-Hawthorn'
p1378
I1005
sS'L. H. Wasserman'
p1379
I1341
sS'Annalisa Celotti'
p1380
I212
sS'A. Dekel'
p1381
I37
sS'S. Kaspi'
p1382
I2161
sS'D. Queloz'
p1383
I490
sS'G. Fasano'
p1384
I761
sS'James Binney'
p1385
I1138
sS'T. Lu'
p1386
I2304
sS'J. P. Halpern'
p1387
I1099
sS'H. Andernach'
p1388
I864
sS'Kristen Menou'
p1389
I1312
sS'R. C. Hartman'
p1390
I1899
sS'Terry Bridges'
p1391
I2365
sS'T. Di Matteo'
p1392
I2284
sS'M. H. Pinsonneault'
p1393
I1468
sS'W. E. Harris'
p1394
I2460
sS'D. R. Alves'
p1395
I491
sS'Bradley E. Schaefer'
p1396
I291
sS'Christian Theis'
p1397
I392
sS'Tomaso Belloni'
p1398
I2391
sS'Fabrizio Fiore'
p1399
I719
sS'Jeffrey L. Linsky'
p1400
I1160
sS'Adriano H. Cerqueira'
p1401
I163
sS'J. E. Gizis'
p1402
I1029
sS'E. Martinez-Gonzalez'
p1403
I598
sS'Mark Lacy'
p1404
I1596
sS'T. M. Tauris'
p1405
I2307
sS'R. J. Brunner'
p1406
I1948
sS'David L. Lambert'
p1407
I531
sS'Jeremy Kepner'
p1408
I1166
sS'I. H. Stairs'
p1409
I950
sS'John E. Carlstrom'
p1410
I1181
sS'Raymond E. White III'
p1411
I2037
sS'Istv\xc3\xa1n Szapudi'
p1412
I981
sS'F. N. Owen'
p1413
I702
sS'Christopher J. Miller'
p1414
I398
sS'D. Michael Crenshaw'
p1415
I481
sS'F. Verbunt'
p1416
I713
sS'David V. Bowen'
p1417
I537
sS'Mark Morris'
p1418
I1597
sS'F. Halzen'
p1419
I692
sS'H. Netzer'
p1420
I901
sS'P. S. Coppi'
p1421
I1799
sS'S. T. Garrington'
p1422
I2200
sS'Neta A. Bahcall'
p1423
I1689
sS'Dan Maoz'
p1424
I509
sS'Marco Limongi'
p1425
I1579
sS'M. Sikora'
p1426
I1553
sS'C. Gallart'
p1427
I326
sS'E. Massaro'
p1428
I599
sS'R. E. Rutledge'
p1429
I1924
sS'Christopher F. McKee'
p1430
I396
sS'R. G. Gratton'
p1431
I1939
sS'Tom Abel'
p1432
I2386
sS'C. Cesarsky'
p1433
I313
sS'Tsutomu T. Takeuchi'
p1434
I2402
sS'Marek A. Abramowicz'
p1435
I1582
sS'H. Inoue'
p1436
I881
sS'Will Sutherland'
p1437
I2505
sS'Peter Lundqvist'
p1438
I1859
sS'M. Reid'
p1439
I1532
sS'P. Magain'
p1440
I1776
sS'Andrew J. Bunker'
p1441
I201
sS'T. Oka'
p1442
I2319
sS'A. Franceschini'
p1443
I51
sS'R. F. Peletier'
p1444
I1929
sS'Hien D. Tran'
p1445
I927
sS'E. Mueller'
p1446
I601
sS'H. E. Jorgensen'
p1447
I874
sS'J. J. Bock'
p1448
I1062
sS'P. D. Hemenway'
p1449
I1736
sS'Penny D. Sackett'
p1450
I1848
sS'Christine D. Wilson'
p1451
I393
sS'I. Prandoni'
p1452
I960
sS'R. G. Abraham'
p1453
I1936
sS'M. S. Longair'
p1454
I1537
sS'Eric C. Ford'
p1455
I647
sS'G. Simon'
p1456
I811
sS'M. Mateo'
p1457
I1508
sS'M. Gliozzi'
p1458
I1464
sS'S. Phillipps'
p1459
I2192
sS'M. J. Irwin'
p1460
I1484
sS'C. M. Baugh'
p1461
I340
sS'Satoshi Nozawa'
p1462
I2223
sS'L. J. Tacconi'
p1463
I1347
sS'R. A. M. J. Wijers'
p1464
I1886
sS'Y. Sofue'
p1465
I2534
sS'Remo Ruffini'
p1466
I2041
sS'S. M. Faber'
p1467
I2173
sS'E. Schinnerer'
p1468
I614
sS'S. Cristiani'
p1469
I2133
sS'Ennio Poretti'
p1470
I642
sS'J. M. Wrobel'
p1471
I1089
sS'P. J. Serlemitsos'
p1472
I1762
sS'E. Pascale'
p1473
I608
sS'Sabrina De Grandi'
p1474
I2218
sS'Matias Zaldarriaga'
p1475
I1609
sS'G. B. Taylor'
p1476
I742
sS'P. Lira'
p1477
I1771
sS'Rita M. Sambruna'
p1478
I2062
sS'S. Aalto'
p1479
I2108
sS'Richard W. Hunstead'
p1480
I2057
sS'S. Massaglia'
p1481
I2180
sS'M. Signore'
p1482
I1552
sS'R. D. Blandford'
p1483
I1910
sS'L. J. Greenhill'
p1484
I1346
sS'Fumio Takahara'
p1485
I737
sS'Piotr Popowski'
p1486
I1874
sS'K. Kikuchi'
p1487
I1246
sS'E. Sturm'
p1488
I615
sS'Chris Done'
p1489
I385
sS'R. Gispert'
p1490
I1943
sS'Henry E. Kandrup'
p1491
I923
sS'Wallace L. W. Sargent'
p1492
I2495
sS'A. Comastri'
p1493
I35
sS'I. Soszynski'
p1494
I965
sS'Grazyna Stasinska'
p1495
I850
sS'Mark Halpern'
p1496
I1594
sS'B. A. Peterson'
p1497
I227
sS'B. M. Poggianti'
p1498
I252
sS'P. Soffitta'
p1499
I1805
sS'Mauro Giavalisco'
p1500
I1616
sS'L. da Costa'
p1501
I1383
sS'J. Dennett-Thorpe'
p1502
I1025
sS'C. Adami'
p1503
I303
sS'R. N. Ogley'
p1504
I1974
sS'J. P. Henry'
p1505
I1100
sS'S. J. Wagner'
p1506
I2155
sS'M. R. Pratt'
p1507
I1528
sS'D. S. Shepherd'
p1508
I499
sS'W. Kluzniak'
p1509
I2474
sS'J. E. Beckman'
p1510
I1027
sS'Jaan Einasto'
p1511
I1136
sS'E. Covino'
p1512
I576
sS'William H. Lee'
p1513
I2509
sS'M. Turatto'
p1514
I1561
sS'A. J. Green'
p1515
I72
sS'F. -K. Thielemann'
p1516
I663
sS'S. di Serego Alighieri'
p1517
I2214
sS'Ortwin Gerhard'
p1518
I1718
sS'Megan Donahue'
p1519
I1620
sS'H. J. Haubold'
p1520
I883
sS'W. D. Vacca'
p1521
I2459
sS'Noriaki Yahata'
p1522
I1701
sS'C A Jackson'
p1523
I299
sS'Maarten Schmidt'
p1524
I1570
sS'M. W. Werner'
p1525
I1566
sS'K. Hurley'
p1526
I1242
sS'M. Trifoglio'
p1527
I1560
sS'Rosa M. Gonzalez Delgado'
p1528
I2096
sS'K. Kifonidis'
p1529
I1245
sS'F. Favata'
p1530
I684
sS'H. R. Schmitt'
p1531
I904
sS'M. Stiavelli'
p1532
I1554
sS'B. J. Teegarden'
p1533
I244
sS'A. Meiksin'
p1534
I100
sS'O. Laurent'
p1535
I1708
sS'N. Metcalfe'
p1536
I1668
sS'John T. Stocke'
p1537
I1195
sS'D. Calzetti'
p1538
I430
sS'J. B. Hutchings'
p1539
I1001
sS'G. Iovane'
p1540
I779
sS'R. R. de Carvalho'
p1541
I1992
sS'S. K. Ghosh'
p1542
I2159
sS'R. A. E. Fosbury'
p1543
I1884
sS'R. Pallavicini'
p1544
I1985
sS'Marijn Franx'
p1545
I1586
sS'O. V. Verkhodanov'
p1546
I1713
sS'K. Makishima'
p1547
I1255
sS'J. E. Larkin'
p1548
I1033
sS'M. Tavani'
p1549
I1558
sS'L. van Zee'
p1550
I1385
sS'T. Yoshikoshi'
p1551
I2353
sS'R. W. Hunstead'
p1552
I2016
sS'L. Metcalfe'
p1553
I1359
sS'K. Leech'
p1554
I1251
sS'Takashi Murayama'
p1555
I2359
sS'K. Koyama'
p1556
I1247
sS'Krzysztof M. Gorski'
p1557
I1314
sS'F. Crawford'
p1558
I678
sS'A. Fuente'
p1559
I53
sS'Maurizio Salaris'
p1560
I1615
sS'I. Baraffe'
p1561
I942
sS'Eric Gawiser'
p1562
I651
sS'Kurt L. Adelberger'
p1563
I1315
sS'L. M. Haffner'
p1564
I1354
sS'K. Mukai'
p1565
I1258
sS'Amiel Sternberg'
p1566
I186
sS'Jean-Pierre Lasota'
p1567
I1157
sS'Giovanni Carraro'
p1568
I847
sS'D. Marsden'
p1569
I479
sS'Brian D. Fields'
p1570
I293
sS'Andrew J. Barber'
p1571
I200
sS'S. G. Djorgovski'
p1572
I2143
sS'H. J. Mo'
p1573
I884
sS'Izumi Hachisu'
p1574
I983
sS'D. N. C. Lin'
p1575
I483
sS'O. Almaini'
p1576
I1704
sS'G. Fossati'
p1577
I762
sS'Isaac Shlosman'
p1578
I979
sS'D. Reimers'
p1579
I496
sS'M. P. Hobson'
p1580
I1521
sS'M. I. Andersen'
p1581
I1476
sS'E. P. Mazets'
p1582
I606
sS'K. Coble'
p1583
I1231
sS'F. J. Carrera'
p1584
I694
sS'R. Maiolino'
p1585
I1966
sS'M. Le Dour'
p1586
I1498
sS'Maxim Lyutikov'
p1587
I1619
sS'A. Eckart'
p1588
I44
sS'B. E. J. Pagel'
p1589
I233
sS'Michael L. Norman'
p1590
I1631
sS'A. Sarajedini'
p1591
I135
sS'Milan M. Cirkovic'
p1592
I1642
sS'Joshua A. Frieman'
p1593
I1210
sS'J. F. Gallimore'
p1594
I1040
sS'Sara L. Ellison'
p1595
I2221
sS'Joseph Silk'
p1596
I1209
sS'G. De Zotti'
p1597
I755
sS'Rosalba Perna'
p1598
I2097
sS'D. L. Khokhlov'
p1599
I466
sS'Neal J. Evans II'
p1600
I1684
sS'Craig J. Hogan'
p1601
I412
sS'M. R. S. Hawkins'
p1602
I1529
sS'A. Kraus'
p1603
I85
sS'G. Giovannini'
p1604
I769
sS'Andrzej A. Zdziarski'
p1605
I208
sS'D. L. Jauncey'
p1606
I464
sS'Alvio Renzini'
p1607
I184
sS'Riccardo Scarpa'
p1608
I2047
sS'D. R. Lorimer'
p1609
I493
sS'M. Postman'
p1610
I1525
sS'F. Aharonian'
p1611
I667
sS'Lyman Page'
p1612
I1406
sS'P. Valageas'
p1613
I1814
sS'R. D. Ekers'
p1614
I1913
sS'Michiel van der Klis'
p1615
I1639
sS'L. Infante'
p1616
I1345
sS'Jean H. Swank'
p1617
I1153
sS'H. Lampeitl'
p1618
I890
sS'Claes Fransson'
p1619
I406
sS'Francesco Haardt'
p1620
I725
sS'G. E. Brown'
p1621
I757
sS'R. C. Butler'
p1622
I1898
sS'Carlos Frenk'
p1623
I372
sS'Amri Wandel'
p1624
I190
sS'R. I. Hynes'
p1625
I1947
sS'M. Vietri'
p1626
I1563
sS'D. L. Tucker'
p1627
I468
sS'R. Turolla'
p1628
I2013
sS'E. Mazets'
p1629
I600
sS'M. Revnivtsev'
p1630
I1533
sS'T. Naito'
p1631
I2314
sS'A. Lazarian'
p1632
I91
sS'H. W. W. Spoon'
p1633
I910
sS'H. Ebeling'
p1634
I875
sS'M. Ostrowski'
p1635
I1520
sS'Richard Lieu'
p1636
I2053
sS'Katherine M. Blundell'
p1637
I1287
sS'Edwin L. Turner'
p1638
I631
sS'H. Matsumoto'
p1639
I898
sS'L. Amati'
p1640
I1318
sS'A. Jenkins'
p1641
I76
sS'Martin D. Weinberg'
p1642
I1601
sS'C. Lidman'
p1643
I339
sS'Mordecai-Mark Mac Low'
p1644
I1644
sS'Rosemary F. G. Wyse'
p1645
I2098
sS'J. Marti'
p1646
I1091
sS'Kazuhiro Yamamoto'
p1647
I1290
sS'S. Covino'
p1648
I2132
sS'R. Fanti'
p1649
I1932
sS'R. C. Smith'
p1650
I1902
sS'Toshiya Ueta'
p1651
I2398
sS'M. R. Zapatero Osorio'
p1652
I1530
sS'S. J. Oliver'
p1653
I2154
sS'Frederic A. Rasio'
p1654
I734
sS'H. W. Duerbeck'
p1655
I909
sS'M. A. Nowak'
p1656
I1413
sS'H. Aussel'
p1657
I865
sS'V. Antonuccio-Delogu'
p1658
I2417
sS'Daniel D. Kelson'
p1659
I511
sS'S. Zane'
p1660
I2212
sS'A. N. Lasenby'
p1661
I105
sS'Ray Jayawardhana'
p1662
I2036
sS'W. Voges'
p1663
I2489
sS'Paolo Padoan'
p1664
I1825
sS'N. Kawai'
p1665
I1662
sS'H. Zinnecker'
p1666
I911
sS'Alison Sills'
p1667
I181
sS'J. Halpern'
p1668
I1054
sS'Takashi Hamana'
p1669
I2358
sS'J. E. McClintock'
p1670
I1034
sS'Kazuo Makishima'
p1671
I1291
sS'Somenath Chakrabarty'
p1672
I2255
sS'T. Pursimo'
p1673
I2326
sS'Andrew S. Wilson'
p1674
I205
sS'E. L. Turner'
p1675
I591
sS'K. R. Pollard'
p1676
I1269
sS'Rachel S. Somerville'
p1677
I2025
sS'A. A. Deshpande'
p1678
I2
sS'H. Hirashita'
p1679
I879
sS'R. F. Stein'
p1680
I1930
sS'U. Heber'
p1681
I2407
sS'G. J. Savonije'
p1682
I783
sS'K. Beuermann'
p1683
I1228
sS'Martijn de Kool'
p1684
I1600
sS'R. Ferlet'
p1685
I1933
sS'Mariano Mendez'
p1686
I1585
sS'Paul Goudfrooij'
p1687
I1836
sS'W. W. Zeilinger'
p1688
I2490
sS'Carlos De Breuck'
p1689
I371
sS'Matthew A. Bershady'
p1690
I1610
sS'D. L. Lambert'
p1691
I467
sS'M. A. Barstow'
p1692
I1409
sS'G. Chabrier'
p1693
I751
sS'Tsafrir S. Kolatt'
p1694
I2400
sS'M. Gambera'
p1695
I1459
sS'Giuseppe Tormen'
p1696
I848
sS'W. Yuan'
p1697
I2491
sS'Andrew Cumming'
p1698
I198
sS'Azita Valinia'
p1699
I225
sS'S. Yanagita'
p1700
I2211
sS'C. G. Lacey'
p1701
I324
sS'Philippe Fischer'
p1702
I1868
sS'J. Heise'
p1703
I1056
sS'Xinwu Cao'
p1704
I2519
sS'Eduardo Hardy'
p1705
I624
sS'J. M. Moran'
p1706
I1084
sS'Sangeeta Malhotra'
p1707
I2220
sS'J. A. R. Caldwell'
p1708
I994
sS'C. Chiosi'
p1709
I315
sS'J. S. Bloom'
p1710
I1116
sS'George Efstathiou'
p1711
I837
sS'W. J. Percival'
p1712
I2472
sS'S. Chaty'
p1713
I2126
sS'John L. Tonry'
p1714
I1188
sS'D. Alloin'
p1715
I420
sS'B. M. Gaensler'
p1716
I250
sS'G. Gavazzi'
p1717
I766
sS'Masao Mori'
p1718
I1607
sS'H. Boehringer'
p1719
I867
sS'H. Falcke'
p1720
I876
sS'A. Lawrence'
p1721
I90
sS'Witold Maciejewski'
p1722
I2512
sS'W. Saunders'
p1723
I2486
sS'Walter Dehnen'
p1724
I2496
sS'S. Hara'
p1725
I2148
sS'M. H. van Kerkwijk'
p1726
I1470
sS'K. Iwasawa'
p1727
I1243
sS'R. N. Manchester'
p1728
I1973
sS'P. D. Mauskopf'
p1729
I1737
sS'Richard Elston'
p1730
I2050
sS'P. Ciliegi'
p1731
I1733
sS'L. Maraschi'
p1732
I1357
sS'D. Carter'
p1733
I431
sS'J. Michael Shull'
p1734
I1094
sS'J. L. Sanz'
p1735
I1077
sS'T. Axelrod'
p1736
I2275
sS'John Kormendy'
p1737
I1187
sS'P. Vreeswijk'
p1738
I1817
sS'R. -J. Dettmar'
p1739
I1882
sS'J. P. Ostriker'
p1740
I1103
sS'C. W. Stubbs'
p1741
I365
sS'D. -C. Kim'
p1742
I416
sS'K. A. Postnov'
p1743
I1225
sS'M. Boettcher'
p1744
I1426
sS"Robert W. O'Connell"
p1745
I2079
sS'M. Colpi'
p1746
I1439
sS'Timothy R. Bedding'
p1747
I2378
sS'Y. Maeda'
p1748
I2527
sS'J. P. D. Mittaz'
p1749
I1097
sS'Christopher Stubbs'
p1750
I400
sS'L. Chiappetti'
p1751
I1329
sS'Zhi-Yun Li'
p1752
I2557
sS'L. M. Lubin'
p1753
I1355
sS'A. W. Blain'
p1754
I147
sS'R. Misra'
p1755
I1969
sS'I. M. Gioia'
p1756
I954
sS'L. B. F. M. Waters'
p1757
I1321
sS'M. Kramer'
p1758
I1494
sS'S. De Grandi'
p1759
I2137
sS'Richard Ellis'
p1760
I2049
sS'A. Ray'
p1761
I125
sS'J. Einasto'
p1762
I1038
sS'J. B. Jones'
p1763
I1002
sS'Christopher A. Tout'
p1764
I394
sS'Rupert A. C. Croft'
p1765
I2100
sS'M. Heydari-Malayeri'
p1766
I1473
sS'H. -Th. Janka'
p1767
I861
sS'Bahram Mobasher'
p1768
I274
sS'S. Johnston'
p1769
I2158
sS'Ralf Bender'
p1770
I2027
sS'S. Vercellone'
p1771
I2209
sS'Cong Xu'
p1772
I410
sS'A. Siemiginowska'
p1773
I137
sS'T. Mineo'
p1774
I2311
sS'P. N. Wilkinson'
p1775
I1783
sS'S. J. Lilly'
p1776
I2152
sS'M. Scodeggio'
p1777
I1549
sS'L. Wang'
p1778
I1381
sS'A. Yoshida'
p1779
I153
sS'S. Malhotra'
p1780
I2176
sS'L. Gregorini'
p1781
I1339
sS'G. Kanbach'
p1782
I786
sS'Michael C. Liu'
p1783
I1625
sS'Tim de Zeeuw'
p1784
I2375
sS'I. Thompson'
p1785
I966
sS'R. Fong'
p1786
I1934
sS'K. Pottschmidt'
p1787
I1267
sS'A. Dey'
p1788
I39
sS'D. Fadda'
p1789
I445
sS'Dong Lai'
p1790
I555
sS'L. Binette'
p1791
I1324
sS'P. Tozzi'
p1792
I1811
sS'Christopher Thompson'
p1793
I401
sS'M. S. Catalan'
p1794
I1536
sS'H. I. Teplitz'
p1795
I880
sS'V. Charmandaris'
p1796
I2423
sS'R. Cayrel'
p1797
I1905
sS'A. Ptak'
p1798
I121
sS'M. Lemoine'
p1799
I1499
sS'Donald P. Schneider'
p1800
I553
sS'R. Staubert'
p1801
I2007
sS'M. Bailes'
p1802
I1420
sS'D. Crampton'
p1803
I434
sS'D. J. Axon'
p1804
I453
sS'A. C. Quillen'
p1805
I24
sS'Z. Ivezic'
p1806
I2555
sS'J. F. Bell'
p1807
I1039
sS'F. Melia'
p1808
I701
sS'P. S. Butterworth'
p1809
I1798
sS'S. P. Ellingsen'
p1810
I2189
sS'Jimmy A. Irwin'
p1811
I1172
sS'Oleg Y. Gnedin'
p1812
I1715
sS'Eiichiro Komatsu'
p1813
I633
sS'A. Abergel'
p1814
I5
sS'Donald C. Backer'
p1815
I550
sS'A. Olech'
p1816
I110
sS'A. S. Wilson'
p1817
I131
sS'Bing Zhang'
p1818
I285
sS'V. V. Sokolov'
p1819
I2440
sS'Jeffrey E. McClintock'
p1820
I1159
sS'Ian A. Bonnell'
p1821
I970
sS'A. H. Jaffe'
p1822
I61
sS'Peter Coles'
p1823
I1853
sS'V. Karas'
p1824
I2427
sS'G. A. Mamon'
p1825
I739
sS'Y. Hoffman'
p1826
I2524
sS'R. P. Mignani'
p1827
I1981
sS'C. N. A. Willmer'
p1828
I347
sS'T. Sako'
p1829
I2334
sS'S. Savaglio'
p1830
I2197
sS'Sarbani Basu'
p1831
I2222
sS'M. R. Burleigh'
p1832
I1526
sS'K. Petrovay'
p1833
I1266
sS'D. D. Frederiks'
p1834
I435
sS'Adam G. Riess'
p1835
I160
sS'Eva K. Grebel'
p1836
I657
sS'Alan Dressler'
p1837
I166
sS'S. Del Sordo'
p1838
I2138
sS'Moshe Elitzur'
p1839
I1646
sS'Martin White'
p1840
I1605
sS'R. J. Ivison'
p1841
I1949
sS'P. J. E. Peebles'
p1842
I1758
sS'R. H. Becker'
p1843
I1945
sS'D. Pogosyan'
p1844
I487
sS'Chryssa Kouveliotou'
p1845
I404
sS'M. M. Phillips'
p1846
I1502
sS'D. Elbaz'
p1847
I442
sS'Jozef Klacka'
p1848
I1213
sS'J. E. Ruhl'
p1849
I1037
sS'A. Renzini'
p1850
I126
sS'B. S. Gaudi'
p1851
I263
sS'H. Lesch'
p1852
I891
sS'I. N. Reid'
p1853
I957
sS'J. Christensen-Dalsgaard'
p1854
I1018
sS'G. C. Stewart'
p1855
I749
sS'Cristiano Porciani'
p1856
I414
sS'S. Masi'
p1857
I2179
sS'Christopher D. Matzner'
p1858
I395
sS'Alan M. Levine'
p1859
I167
sS'P. Papaderos'
p1860
I1788
sS'R. Morganti'
p1861
I1971
sS'Slavek M. Rucinski'
p1862
I2253
sS'John Magorrian'
p1863
I1189
sS'Inese I. Ivans'
p1864
I976
sS'James S. Bullock'
p1865
I1146
sS'P. Schuecker'
p1866
I1803
sS'T. R. Geballe'
p1867
I2329
sS'F. D. Macchetto'
p1868
I680
sS'Takaya Ohashi'
p1869
I2361
sS'George Miley'
p1870
I841
sS'J. Kerp'
p1871
I1071
sS'D. J. Burke'
p1872
I454
sS'R. B. C. Henry'
p1873
I1894
sS'C. R. Gwinn'
p1874
I352
sS'Paola Marigo'
p1875
I1822
sS'C. Pichon'
p1876
I351
sS'David Merritt'
p1877
I532
sS'T. J. Ponman'
p1878
I2297
sS'A. Goldwurm'
p1879
I58
sS'L. Feretti'
p1880
I1336
sS'F. Atrio-Barandela'
p1881
I669
sS'A. J. Weinberger'
p1882
I74
sS'Ofer Lahav'
p1883
I1714
sS'S. LeBohec'
p1884
I2168
sS'D. Dultzin-Hacyan'
p1885
I439
sS'Ray J. Weymann'
p1886
I2035
sS'R. Neuhaeuser'
p1887
I1976
sS'M. Kubiak'
p1888
I1495
sS'Patrick Cote'
p1889
I1831
sS'P. Cox'
p1890
I1735
sS'T. Yaqoob'
p1891
I2351
sS'G. Vettolani'
p1892
I819
sS'H. Lin'
p1893
I894
sS'W. P. S. Meikle'
p1894
I2481
sS'Jongsoo Kim'
p1895
I1201
sS"K. O'Neil"
p1896
I1262
sS'F. Combes'
p1897
I676
sS'Filippo Frontera'
p1898
I721
sS'R. A. Watson'
p1899
I1890
sS'S. J. Bell Burnell'
p1900
I2151
sS'A. S. Fruchter'
p1901
I129
sS'D. Rusin'
p1902
I498
sS'F. -J. Zickgraf'
p1903
I662
sS'J. M. Shull'
p1904
I1088
sS'Harry I. Teplitz'
p1905
I918
sS'Heino Falcke'
p1906
I921
sS'Taft E. Armandroff'
p1907
I2356
sS'Roberto Terlevich'
p1908
I2081
sS'Geraint F. Lewis'
p1909
I842
sS'Guinevere Kauffmann'
p1910
I858
sS'Ignas Snellen'
p1911
I974
sS'Bennett Link'
p1912
I280
sS'J. -C. Cuillandre'
p1913
I984
sS'Fulvio Melia'
p1914
I736
sS'M. C. Begelman'
p1915
I1429
sS'V. S. Dhillon'
p1916
I2437
sS'Hans-Walter Rix'
p1917
I917
sS'D. C. Koo'
p1918
I429
sS'L. Vanzi'
p1919
I1378
sS'P. Wozniak'
p1920
I1819
sS'Enrique Gaztanaga'
p1921
I643
sS'A. Finoguenov'
p1922
I49
sS'E. Costa'
p1923
I575
sS'A. Possenti'
p1924
I120
sS'Tal Alexander'
p1925
I2363
sS'Almudena Alonso-Herrero'
p1926
I183
sS'A. D. Biggs'
p1927
I36
sS'J. D. Smith'
p1928
I1023
sS'N. Tanvir'
p1929
I1675
sS'Eric S. Perlman'
p1930
I652
sS'Patrick Petitjean'
p1931
I1833
sS'G. Longo'
p1932
I790
sS'Ian S. McLean'
p1933
I971
sS'R. Hoogerwerf'
p1934
I1946
sS'John F. Hawley'
p1935
I1183
sS'B. Thomsen'
p1936
I269
sS'Paul J. Francis'
p1937
I1838
sS'Mark Dickinson'
p1938
I1592
sS'Luis C. Ho'
p1939
I1405
sS'Erik Kuulkers'
p1940
I653
sS'L. L. Cowie'
p1941
I1351
sS'David A. Neufeld'
p1942
I519
sS'J. Vinko'
p1943
I1128
sS'B. Kozlovsky'
p1944
I248
sS'A. Pedlar'
p1945
I118
sS'D. Burstein'
p1946
I427
sS'Kazuhiro Shimasaku'
p1947
I1289
sS'J. Alves'
p1948
I999
sS'Y. P. Jing'
p1949
I2532
sS'A. Fruscione'
p1950
I52
sS'M. Joy'
p1951
I1492
sS'U. Becciani'
p1952
I2404
sS'Christopher W. Churchill'
p1953
I402
sS'C. D. Wilson'
p1954
I320
sS'W. Pych'
p1955
I2483
sS'Dongsu Ryu'
p1956
I556
sS'G. Gilmore'
p1957
I768
sS'I. Marquez'
p1958
I956
sS'Oscar Straniero'
p1959
I1719
sS'R. Coziol'
p1960
I1909
sS'Toshiyuki Fukushige'
p1961
I2399
sS'F. R. Ferraro'
p1962
I710
sS'B. K. Gibson'
p1963
I246
sS'A. Robinson'
p1964
I128
sS'G. I. Ogilvie'
p1965
I777
sS'J. H. Buckley'
p1966
I1049
sS'S. R. Kulkarni'
p1967
I2194
sS'Eric Emsellem'
p1968
I648
sS'A. Saha'
p1969
I132
sS'R. Stompor'
p1970
I2008
sS'A. Moorwood'
p1971
I102
sS'J. R. Bond'
p1972
I1104
sS'Lloyd Knox'
p1973
I1402
sS'Smita Mathur'
p1974
I2254
sS'H. L. Marshall'
p1975
I889
sS'P. Tim de Zeeuw'
p1976
I1810
sS'J. Schneider'
p1977
I1120
sS'M. Sawicki'
p1978
I1547
sS'M. Gros'
p1979
I1466
sS'Huan Lin'
p1980
I933
sS'C. A. Collins'
p1981
I301
sS'R. Pello'
p1982
I1987
sS'R. Falomo'
p1983
I1931
sS'A. de Koter'
p1984
I154
sS'E. Carretta'
p1985
I573
sS'T. Ott'
p1986
I2322
sS'E. B. Jenkins'
p1987
I564
sS'M. Mayor'
p1988
I1510
sS'D. Rigopoulou'
p1989
I497
sS'T. Shahbaz'
p1990
I2335
sS'A. Heger'
p1991
I62
sS'G. Meynet'
p1992
I797
sS'P. A. Henning'
p1993
I1723
sS'Nobuo Arimoto'
p1994
I1699
sS'Claude R. Canizares'
p1995
I407
sS'Paul J. Steinhardt'
p1996
I1840
sS'E. Athanassoula'
p1997
I562
sS'K. Dennerl'
p1998
I1234
sS'Jonathan C. Tan'
p1999
I1198
sS'J. C. Wheeler'
p2000
I1014
sS'W. Brandner'
p2001
I2452
sS'S. D. Ryder'
p2002
I2136
sS'J. C. Niemeyer'
p2003
I1012
sS'N. Silbermann'
p2004
I1674
sS'S. R. Majewski'
p2005
I2195
sS'Brian P. Schmidt'
p2006
I294
sS'A. Celotti'
p2007
I30
sS'Dimitrios Psaltis'
p2008
I546
sS'C. Y. Peng'
p2009
I367
sS'Gavin Ramsay'
p2010
I831
sS'Adam Burrows'
p2011
I158
sS'L. A. Antonelli'
p2012
I1317
sS'P. Roche'
p2013
I1794
sS'A. Smette'
p2014
I138
sS'John J. Salzer'
p2015
I1185
sS'Eugenio Carretta'
p2016
I656
sS'George Lake'
p2017
I839
sS'A. Udalski'
p2018
I142
sS'E. P. Liang'
p2019
I605
sS'Francois Schweizer'
p2020
I729
sS'Ata Sarajedini'
p2021
I222
sS'K. Gebhardt'
p2022
I1236
sS'Alessandro Capetti'
p2023
I174
sS'L. Stella'
p2024
I1373
sS'Kenji Bekki'
p2025
I1298
sS'C. D. Fassnacht'
p2026
I318
sS'Joachim Wambsganss'
p2027
I1174
sS'B. T. Soifer'
p2028
I268
sS'Y. Watase'
p2029
I2537
sS'David N. Spergel'
p2030
I534
sS'Joshua E. Barnes'
p2031
I1211
sS'Krzysztof Belczynski'
p2032
I1313
sS'Noah Brosch'
p2033
I1697
sS'C. W. Shepherd'
p2034
I364
sS'A. Laor'
p2035
I89
sS'Robert G. Crittenden'
p2036
I2072
sS'Edward F. Brown'
p2037
I628
sS'L. N. da Costa'
p2038
I1361
sS'P. E. Nissen'
p2039
I1741
sS'Edward B. Jenkins'
p2040
I626
sS'H. Dottori'
p2041
I873
sS'David Branch'
p2042
I521
sS'R. Cowsik'
p2043
I1908
sS'C. Done'
p2044
I322
sS'A. R. Rao'
p2045
I124
sS'M. A. Hendry'
p2046
I1411
sS'A. Panaitescu'
p2047
I116
sS'S. C. Gallagher'
p2048
I2118
sS'Francesco R. Ferraro'
p2049
I727
sS'M. Cappi'
p2050
I1431
sS'Myung Gyoon Lee'
p2051
I1647
sS'F. Bernardeau'
p2052
I670
sS'R. D. Davies'
p2053
I1912
sS'D. M. Neumann'
p2054
I474
sS'M. Inoue'
p2055
I1477
sS'Margaret Meixner'
p2056
I1584
sS'Brad K. Gibson'
p2057
I288
sS'S. Oliver'
p2058
I2187
sS'R. Sunyaev'
p2059
I2009
sS'Bharat Ratra'
p2060
I283
sS'S. V. Golenetskii'
p2061
I2205
sS'G. Pooley'
p2062
I805
sS'Yutaka Fujita'
p2063
I2551
sS'M. D. Albrow'
p2064
I1440
sS'Marcin Sawicki'
p2065
I1577
sS'Takuji Tsujimoto'
p2066
I2362
sS'Nick Kaiser'
p2067
I1692
sS'V. E. Karachentseva'
p2068
I2424
sS'Daniel Stern'
p2069
I515
sS'S. C. Odewahn'
p2070
I2119
sS'James E. Rhoads'
p2071
I1141
sS'M. Douspis'
p2072
I1450
sS'D. W. Hoard'
p2073
I506
sS'P. Laurent'
p2074
I1770
sS'J. G. Robertson'
p2075
I1044
sS'J. Bouvier'
p2076
I1007
sS'L. Sidoli'
p2077
I1370
sS'L. Carrasco'
p2078
I1327
sS'W. Hofmann'
p2079
I2468
sS'M. Dadina'
p2080
I1443
sS'J. A. de Freitas Pacheco'
p2081
I998
sS'M. Balucinska-Church'
p2082
I1421
sS'A. J. Castro-Tirado'
p2083
I69
sS'A. Retter'
p2084
I127
sS'Robert P. Kirshner'
p2085
I2076
sS'J. Swank'
p2086
I1123
sS'J. M. Diego'
p2087
I1082
sS'R. Wielebinski'
p2088
I2020
sS'M. Elvis'
p2089
I1455
sS'M. Mendez'
p2090
I1512
sS'Katsuji Koyama'
p2091
I1288
sS'V. Beckmann'
p2092
I2419
sS'Mordehai Milgrom'
p2093
I1645
sS'R. Edelson'
p2094
I1926
sS'L. Knox'
p2095
I1349
sS'Judith A. Irwin'
p2096
I1214
sS'Cedric Lacey'
p2097
I375
sS'J. -P. Bernard'
p2098
I988
sS'P. A. Charles'
p2099
I1722
sS'D. Valls-Gabaud'
p2100
I504
sS'Scott F. Anderson'
p2101
I2229
sS'B. Fuchs'
p2102
I236
sS'Hans Zinnecker'
p2103
I916
sS'Keith A. Olive'
p2104
I1293
sS'E. Bica'
p2105
I569
sS'S. B. Popov'
p2106
I2112
sS'J. Bergeron'
p2107
I1004
sS'Michael J. West'
p2108
I1630
sS'A. C. Edge'
p2109
I22
sS'W. Hermsen'
p2110
I2466
sS'Guillermo Gonzalez'
p2111
I856
sS'Y. Taniguchi'
p2112
I2535
sS'Jeremy S. Heyl'
p2113
I1167
sS'A. Boselli'
p2114
I15
sS'Kevin Krisciunas'
p2115
I1306
sS'C. Alard'
p2116
I304
sS'A. Dobrzycki'
p2117
I40
sS'S. L. Tufte'
p2118
I2166
sS'Marc A. W. Verheijen'
p2119
I1572
sS'Bruce G. Elmegreen'
p2120
I296
sS'Douglas Scott'
p2121
I558
sS'Charles H. Lineweaver'
p2122
I382
sS'B. F. Madore'
p2123
I234
sS'Jesper Sommer-Larsen'
p2124
I1170
sS'Davide Lazzati'
p2125
I540
sS'S. I. Blinnikov'
p2126
I2150
sS'V. V. Vassiliev'
p2127
I2441
sS'J. E. Reynolds'
p2128
I1036
sS'B. Stelzer'
p2129
I265
sS'Angelica de Oliveira-Costa'
p2130
I210
sS'M. Matsuoka'
p2131
I1509
sS'J. -P. Lasota'
p2132
I990
sS'B. Gustafsson'
p2133
I240
sS'P. Fouque'
p2134
I1745
sS'M. Delaney'
p2135
I1446
sS'Monica Colpi'
p2136
I1643
sS'K. S. de Boer'
p2137
I1274
sS'J. L. Han'
p2138
I1076
sS'Francoise Combes'
p2139
I730
sS'Sergio Campana'
p2140
I2238
sS'Sergei F. Shandarin'
p2141
I2236
sS'Idit Zehavi'
p2142
I973
sS'H. Krawczynski'
p2143
I887
sS'The HEGRA Collaboration'
p2144
I2369
sS'Paul J. Green'
p2145
I1839
sS'S. J. Maddox'
p2146
I2153
sS'Keith Grainge'
p2147
I1294
sS'G. L. Granato'
p2148
I787
sS'Paul B. Eskridge'
p2149
I1835
sS'R. A. Allsman'
p2150
I1883
sS'E. Brinks'
p2151
I571
sS'H. Tadros'
p2152
I908
sS'Joachim Stadel'
p2153
I1173
sS'Michael Eracleous'
p2154
I1629
sS'M. Tashiro'
p2155
I1557
sS'M. D. Gregg'
p2156
I1441
sS'G. Soucail'
p2157
I813
sS'M. Bellazzini'
p2158
I1422
sS'L. L. Kiss'
p2159
I1352
sS'A. Mezzacappa'
p2160
I101
sS'W. Zheng'
p2161
I2492
sS'Thomas M. Brown'
p2162
I2372
sS'D. V. Bisikalo'
p2163
I503
sS'N. Masetti'
p2164
I1666
sS'B. McBreen'
p2165
I253
sS'Y. Yoshii'
p2166
I2538
sS'Hiroyuki Hirashita'
p2167
I929
sS'Martha P. Haynes'
p2168
I1599
sS'L. Cayon'
p2169
I1328
sS'Carlton Baugh'
p2170
I374
sS'W. C. Danchi'
p2171
I2454
sS'A. Jessner'
p2172
I77
sS'W. A. Heindl'
p2173
I2448
sS'S. Bardelli'
p2174
I2113
sS'Huub Rottgering'
p2175
I936
sS'M. Sauvage'
p2176
I1546
sS'Elena Terlevich'
p2177
I635
sS'R. Terlevich'
p2178
I2012
sS'Carlos Allende Prieto'
p2179
I370
sS'Michael E. Jones'
p2180
I1628
sS'Elena Pian'
p2181
I634
sS'I. F. Mirabel'
p2182
I947
sS'G. Risaliti'
p2183
I807
sS'Dipak Munshi'
p2184
I547
sS'Luigi Stella'
p2185
I1404
sS'Stefano Covino'
p2186
I2261
sS'A. Baykal'
p2187
I9
sS'M. Nonino'
p2188
I1518
sS'Mercedes Molla'
p2189
I1621
sS'H. Ritter'
p2190
I905
sS'Michael S. Briggs'
p2191
I1635
sS'D. G. Monet'
p2192
I446
sS'A. B. Peck'
p2193
I8
sS'Ralph Engel'
p2194
I2029
sS'Joseph C. Shields'
p2195
I1205
sS'K. S. Cheng'
p2196
I1271
sS'Andrew J. Connolly'
p2197
I202
sS'Steen Hannestad'
p2198
I2259
sS'D. J. Thompson'
p2199
I458
sS'A. E. Wehrle'
p2200
I43
sS'P. H. Hauschildt'
p2201
I1754
sS'Lam Hui'
p2202
I1386
sS'R. M. Sambruna'
p2203
I1964
sS'Sergei Nayakshin'
p2204
I2237
sS'C. S. Crawford'
p2205
I357
sS'P. A. Caraveo'
p2206
I1721
sS'Raffaele Gratton'
p2207
I2026
sS'J. C. Vega Beltran'
p2208
I1013
sS'Warrick J. Couch'
p2209
I2499
sS'John J. Cowan'
p2210
I1184
sS'A. Marconi'
p2211
I98
sS'Michael S. Turner'
p2212
I1636
sS'J. M. Paredes'
p2213
I1086
sS'M. Bremer'
p2214
I1427
sS'Sandip K. Chakrabarti'
p2215
I2219
sS'B. Altieri'
p2216
I228
sS'J. Spyromilio'
p2217
I1122
sS'L. Testi'
p2218
I1374
sS'D. Minniti'
p2219
I482
sS'S. Leon'
p2220
I2169
sS'J. Hjorth'
p2221
I1057
sS'R. M. Wagner'
p2222
I1965
sS'W. Cui'
p2223
I2457
sS'David Burstein'
p2224
I522
sS'Eelco van Kampen'
p2225
I632
sS'D. P. Schneider'
p2226
I485
sS'K. Werner'
p2227
I1277
sS'F. Poli'
p2228
I707
sS'Edward A. Ajhar'
p2229
I625
sS'E. A. Richards'
p2230
I561
sS'Simon P. Driver'
p2231
I2251
sS'F. A. Harrison'
p2232
I665
sS'D. J. Saikia'
p2233
I457
sS'Chris Simpson'
p2234
I389
sS'Corinne Charbonnel'
p2235
I411
sS'G. Henri'
p2236
I776
sS'D. J. Helfand'
p2237
I456
sS'Jeremy Goodman'
p2238
I1165
sS'P. B. Stetson'
p2239
I1730
sS'N. Epchtein'
p2240
I1657
sS'L. Greggio'
p2241
I1338
sS'Leonid M. Ozernoy'
p2242
I1397
sS'F. Bertoldi'
p2243
I672
sS'J. Heidt'
p2244
I1055
sS'Steve Eales'
p2245
I2266
sS'B. T. Gaensicke'
p2246
I267
sS'Hyesung Kang'
p2247
I937
sS'R. Ramaty'
p2248
I1993
sS'J. van Paradijs'
p2249
I1135
sS'C. Nelson'
p2250
I349
sS'A. C. Becker'
p2251
I21
sS'Zoltan Haiman'
p2252
I2558
sS'P. Veron'
p2253
I1816
sS'D. Martinez-Delgado'
p2254
I480
sS'Y. I. Izotov'
p2255
I2525
sS'L. Armus'
p2256
I1320
sS'P. G. Tuthill'
p2257
I1749
sS'T. Takahashi'
p2258
I2339
sS'G. Weigelt'
p2259
I821
sS'M. Salaris'
p2260
I1542
sS'D. Grupe'
p2261
I450
sS'Keiichi Wada'
p2262
I1292
sS'F. Hamann'
p2263
I693
sS'Regina E. Schulte-Ladbeck'
p2264
I2040
sS'M. Sasaki'
p2265
I1545
sS'P. Meszaros'
p2266
I1779
sS'C. Renault'
p2267
I356
sS'Ronald L. Gilliland'
p2268
I2095
sS'Gilbert P. Holder'
p2269
I845
sS'Roman Scoccimarro'
p2270
I2091
sS'Roger A. Chevalier'
p2271
I2085
sS'Herwig Dejonghe'
p2272
I924
sS'F. R. Pearce'
p2273
I711
sS'Lauro Moscardini'
p2274
I1392
sS'B. Novosyadlyj'
p2275
I255
sS'John E. Gizis'
p2276
I1182
sS'B. W. Stappers'
p2277
I271
sS'H. C. Spruit'
p2278
I871
sS'Dipankar Bhattacharya'
p2279
I548
sS'James E. Gunn'
p2280
I1140
sS'Richard B. Larson'
p2281
I2048
sS'W. Brinkmann'
p2282
I2453
sS'N. Brosch'
p2283
I1652
sS'K. M. Leighly'
p2284
I1253
sS'Demosthenes Kazanas'
p2285
I543
sS'A. F. Davidsen'
p2286
I46
sS'Timothy M. Heckman'
p2287
I2377
sS'Jonathan Granot'
p2288
I1199
sS'Peter M. Garnavich'
p2289
I1860
sS'R. Sari'
p2290
I2000
sS'A. Bazzano'
p2291
I10
sS'Francesco Miniati'
p2292
I726
sS'Andrew Gould'
p2293
I199
sS'T. W. Jones'
p2294
I2346
sS'Boudewijn F. Roukema'
p2295
I287
sS'G. Pietrzynski'
p2296
I803
sS'A. Omont'
p2297
I111
sS'Hyron Spinrad'
p2298
I938
sS'Matthias Bartelmann'
p2299
I1614
sS'Paolo Catelan'
p2300
I1823
sS'Thaisa Storchi-Bergmann'
p2301
I2368
sS'I. M. McHardy'
p2302
I955
sS'J. R. Primack'
p2303
I1110
sS'David Kirkman'
p2304
I529
sS'Allen V. Sweigart'
p2305
I182
sS'T. Mihara'
p2306
I2310
sS'N. Lund'
p2307
I1664
sS'S. B. Kraemer'
p2308
I2111
sS'K. A. Weaver'
p2309
I1226
sS'Scott Dodelson'
p2310
I2228
sS'Alberto Fernandez-Soto'
p2311
I171
sS'T. J. Bridges'
p2312
I2293
sS'M. Malkan'
p2313
I1505
sS'L. M. Young'
p2314
I1356
sS'E. E. Falco'
p2315
I578
sS'Dennis Zaritsky'
p2316
I544
sS'J. A. Munoz'
p2317
I992
sS'Konrad Kuijken'
p2318
I1310
sS'R. Scaramella'
p2319
I2001
sS'Jeffrey A. Willick'
p2320
I1158
sS'Changbom Park'
p2321
I376
sS'Gerard Gilmore'
p2322
I844
sS'W. J. Duschl'
p2323
I2469
sS'Jay A. Frogel'
p2324
I1151
sS'F. A. Aharonian'
p2325
I664
sS'B. Scott Gaudi'
p2326
I264
sS'A. G. Lyne'
p2327
I55
sS'L. P. David'
p2328
I1364
sS'R. Genzel'
p2329
I1941
sS'Neil Trentham'
p2330
I1687
sS'Jounghun Lee'
p2331
I1212
sS'Philip Kaaret'
p2332
I1866
sS'S. L. Morris'
p2333
I2165
sS'N. J. Jackson'
p2334
I1660
sS'S. Andreon'
p2335
I2109
sS'R. Osterbart'
p2336
I1978
sS'T. Yoshida'
p2337
I2352
sS'L. F. Olsen'
p2338
I1334
sS'R. Scarpa'
p2339
I2002
sS'J. Gallego'
p2340
I1045
sS'Colin Borys'
p2341
I409
sS'Markus Kissler-Patig'
p2342
I1598
sS'Sungsoo S. Kim'
p2343
I2272
sS'Steve Rawlings'
p2344
I2268
sS'Xiang-Ping Wu'
p2345
I2517
sS'M. Arnaud'
p2346
I1416
sS'M. Rowan-Robinson'
p2347
I1534
sS'J. R. Houck'
p2348
I1107
sS'B. A. McLeod'
p2349
I226
sS'D. E. Harris'
p2350
I441
sS'Nuria Calvet'
p2351
I1702
sS'D. J. Fixsen'
p2352
I455
sS'J. Fabregat'
p2353
I1041
sS'E. L. Martin'
p2354
I590
sS'G. Matt'
p2355
I795
sS'Reynier F. Peletier'
p2356
I2045
sS'Nicholas B. Suntzeff'
p2357
I1691
sS'James Liebert'
p2358
I1142
sS'Albert A. Zijlstra'
p2359
I170
sS'M. A. T. Groenewegen'
p2360
I1415
sS'F. Fiore'
p2361
I686
sS'W. K. Huchtmeier'
p2362
I2473
sS'A. Castro-Tirado'
p2363
I28
sS'David W. Hogg'
p2364
I539
sS'Carl H. Gibson'
p2365
I369
sS'A. Lancon'
p2366
I88
sS'Claus Leitherer'
p2367
I408
sS'Francesco Bertola'
p2368
I724
sS'Shin Mineshige'
p2369
I2242
sS'S. H. Lubow'
p2370
I2146
sS'Amir Levinson'
p2371
I188
sS'W. L. Freedman'
p2372
I2476
sS'K. O. Mason'
p2373
I1263
sS'R. Griffiths'
p2374
I1944
sS'Antonaldo Diaferio'
p2375
I215
sS'A. Santangelo'
p2376
I134
sS'Aldo Treves'
p2377
I172
sS'Wolfgang Brandner'
p2378
I2513
sS'A. J. Barth'
p2379
I66
sS'M. H. Wieringa'
p2380
I1469
sS'J. -L. Puget'
p2381
I986
sS'W. L. W. Sargent'
p2382
I2478
sS'W. T. Reach'
p2383
I2488
sS'Takahiko Matsubara'
p2384
I2357
sS'A. Bressan'
p2385
I18
sS"Re'em Sari"
p2386
I2039
sS'S. Veilleux'
p2387
I2208
sS'Stephen E. Zepf'
p2388
I2265
sS'P. Mazzotta'
p2389
I1778
sS'S. Vaughan'
p2390
I2207
sS'K. Hill'
p2391
I1240
sS'G. Piotto'
p2392
I804
sS'S. Maddox'
p2393
I2175
sS'Christopher J. Conselice'
p2394
I397
sS'J. Borissova'
p2395
I1006
sS'M. Colless'
p2396
I1438
sS'F. Tavecchio'
p2397
I712
sS'Riccardo Giovanelli'
p2398
I2046
sS'M. Feroci'
p2399
I1457
sS'B. Rudak'
p2400
I262
sS'T. Murakami'
p2401
I2313
sS'Th. Boller'
p2402
I2367
sS'Carl Grillmair'
p2403
I368
sS'S. Mathur'
p2404
I2181
sS'F. Nicastro'
p2405
I704
sS'F. R. Bouchet'
p2406
I709
sS'E. Gaztanaga'
p2407
I583
sS'Jeffrey P. Gardner'
p2408
I1161
sS'S. C. Tripathy'
p2409
I2121
sS'Michael Loewenstein'
p2410
I1632
sS'J. R. Mould'
p2411
I1108
sS'S. Laine'
p2412
I2167
sS'James M. Stone'
p2413
I1143
sS'M. Dennefeld'
p2414
I1447
sS'John C. B. Papaloizou'
p2415
I1179
sS'K. Ohta'
p2416
I1264
sS'J. S. Dunlop'
p2417
I1117
sS'I. Lehmann'
p2418
I952
sS'P. J. Groot'
p2419
I1759
sS'G. Vasisht'
p2420
I818
sS'Tod R. Lauer'
p2421
I2382
sS'P. J. McCarthy'
p2422
I1760
sS'M. Mouchet'
p2423
I1516
sS'C. Surace'
p2424
I362
sS'Martin Elvis'
p2425
I1602
sS'S. P. Trudolyubov'
p2426
I2190
sS'G. Ingrosso'
p2427
I778
sS'I. Dominguez'
p2428
I945
sS'Srdjan Samurovic'
p2429
I2257
sS'K. Nishijima'
p2430
I1260
sS'Ewa L. Lokas'
p2431
I660
sS'E. Nelan'
p2432
I602
sS'T. Bloecker'
p2433
I2278
sS'Beverley J. Wills'
p2434
I282
sS'M. V. Alonso'
p2435
I1562
sS'T. Tamura'
p2436
I2340
sS'P. L. Richards'
p2437
I1769
sS'Alexei V. Filippenko'
p2438
I179
sS'C. M. Raiteri'
p2439
I343
sS'A. Alonso-Herrero'
p2440
I6
sS'Adi Nusser'
p2441
I161
sS'U. Kolb'
p2442
I2410
sS'R. Diehl'
p2443
I1917
sS'Wayne Hu'
p2444
I2500
sS'B. Paul'
p2445
I258
sS'G. Nelemans'
p2446
I799
sS'G. Hasinger'
p2447
I773
sS'A. L. Kinney'
p2448
I86
sS'X. Delfosse'
p2449
I2515
sS'H. Bloemen'
p2450
I866
sS'Nir J. Shaviv'
p2451
I1695
sS'You-Hua Chu'
p2452
I2547
sS'D. Lazzati'
p2453
I470
sS'Wan Chen'
p2454
I2498
sS'Prasenjit Saha'
p2455
I1876
sS'B. Czerny'
p2456
I231
sS'B. Pfeiffer'
p2457
I259
sS'S. Boissier'
p2458
I2116
sS'Bruno Leibundgut'
p2459
I297
sS'Sebastian M. Pascarelle'
p2460
I2234
sS'Tod E. Strohmayer'
p2461
I2381
sS'C. D. Dermer'
p2462
I317
sS'P. M. Vreeswijk'
p2463
I1774
sS'David Charbonneau'
p2464
I523
sS'J. R. Graham'
p2465
I1105
sS'Vicent Quilis'
p2466
I2442
sS'J. Holder'
p2467
I1058
sS'Roger Blandford'
p2468
I2086
sS'Juri Poutanen'
p2469
I1221
sS'B. Koribalski'
p2470
I247
sS'G. Gisler'
p2471
I770
sS'D. Maino'
p2472
I478
sS'Takashi Nakamura'
p2473
I2360
sS'R. C. Nichol'
p2474
I1901
sS'Max Pettini'
p2475
I1617
sS'F. Haberl'
p2476
I691
sS'C. Wolf'
p2477
I366
sS'Neil Turok'
p2478
I1688
sS'Antoinette Songaila'
p2479
I214
sS"C. P. O'Dea"
p2480
I350
sS'Jerome A. Orosz'
p2481
I1169
sS'L. Martinis'
p2482
I1358
sS'J. Zamorano'
p2483
I1134
sS'P. W. Hodge'
p2484
I1818
sS'C. M. Gutierrez'
p2485
I342
sS'K. C. Freeman'
p2486
I1229
sS'F. Makino'
p2487
I697
sS'Alyssa A. Goodman'
p2488
I185
sS'M. S. Oey'
p2489
I1539
sS'Fabrizio Brighenti'
p2490
I718
sS'W. Forman'
p2491
I2461
sS'Insu Yi'
p2492
I978
sS'I. Cagnoni'
p2493
I943
sS'D. Bhattacharya'
p2494
I426
sS'I. D. Karachentsev'
p2495
I944
sS'A. J. Banday'
p2496
I64
sS'C. B. Netterfield'
p2497
I307
sS'R. Doyon'
p2498
I1919
sS'P. Parma'
p2499
I1789
sS'Wei Cui'
p2500
I2501
sS'Brian Chaboyer'
p2501
I292
sS'Noam Soker'
p2502
I1698
sS'J. Jose'
p2503
I1066
sS'K. H. Cook'
p2504
I1239
sS'H. Quintana'
p2505
I903
sS'C. J. Clarke'
p2506
I332
sS'O. G. Benvenuto'
p2507
I1705
sS'R. P. Norris'
p2508
I1982
sS'A. Mazure'
p2509
I99
sS'Wil van Breugel'
p2510
I2503
sS'R. Schwarz'
p2511
I2004
sS'Cheongho Han'
p2512
I383
sS'K. Okumura'
p2513
I1265
sS'M. E. van den Ancker'
p2514
I1453
sS'A. Konopelko'
p2515
I84
sS'Ariyeh H. Maller'
p2516
I217
sS"Ken'ichi Nomoto"
p2517
I1297
sS'Kyoko Matsushita'
p2518
I1316
sS'P. A. R. Ade'
p2519
I1727
sS'J. Greenhill'
p2520
I1047
sS'J. Davy Kirkpatrick'
p2521
I1024
sS'A. J. Benson'
p2522
I67
sS'Rashid A. Sunyaev'
p2523
I2032
sS'J. S. Ulvestad'
p2524
I1119
sS'Pushpa Khare'
p2525
I1879
sS'S. C. Trager'
p2526
I2120
sS'P. Reig'
p2527
I1792
sS'William D. Cochran'
p2528
I2507
sS'Walter H. G. Lewin'
p2529
I2497
sS'F. Mantovani'
p2530
I699
sS'T. M. Brown'
p2531
I2305
sS'Jeroen Homan'
p2532
I1168
sS'Richard Saunders'
p2533
I2056
sS'Duccio Macchetto'
p2534
I559
sS'Robert Petre'
p2535
I2077
sS'M. J. Ward'
p2536
I1491
sS'L. Silva'
p2537
I1371
sS'C. Dettbarn'
p2538
I321
sS'Peter Challis'
p2539
I1852
sS'Paolo Molaro'
p2540
I1824
sS'T. Plewa'
p2541
I2325
sS'L. Guzzo'
p2542
I1340
sS'I. Georgantopoulos'
p2543
I949
sS'Stephane Charlot'
p2544
I2263
sS'Matthew G. Baring'
p2545
I1613
sS'C. M. Urry'
p2546
I344
sS'Alessandro Chieffi'
p2547
I175
sS'Charles C. Steidel'
p2548
I378
sS'P. Jablonka'
p2549
I1764
sS'Thomas Matheson'
p2550
I2373
sS'J. M. Ryan'
p2551
I1087
sS'M. Kasper'
p2552
I1493
sS'David K. Strickland'
p2553
I528
sS'P. E. Hardee'
p2554
I1739
sS'K. Y. Lo'
p2555
I1278
sS'M. Tosi'
p2556
I1559
sS"O. K. Sil'chenko"
p2557
I1706
sS'P. O. Petrucci'
p2558
I1784
sS'R. Della Ceca'
p2559
I1916
s.